(lp0
(dp1
Vcontributors
p2
NsVtruncated
p3
I00
sVtext
p4
V\u77f3\u4e95\u512a\u5e0c\u304c\u53ef\u611b\u304f\u3066\u6b7b\u306b\u305d\u3046\u3002
p5
sVin_reply_to_status_id
p6
NsVid
p7
L407145827522469888L
sVfavorite_count
p8
I0
sVsource
p9
Vweb
p10
sVretweeted
p11
I00
sVcoordinates
p12
NsVentities
p13
(dp14
Vsymbols
p15
(lp16
sVuser_mentions
p17
(lp18
sVhashtags
p19
(lp20
sVurls
p21
(lp22
ssVin_reply_to_screen_name
p23
NsVid_str
p24
V407145827522469888
p25
sVretweet_count
p26
I0
sVin_reply_to_user_id
p27
NsVfavorited
p28
I00
sVuser
p29
(dp30
Vfollow_request_sent
p31
I00
sVprofile_use_background_image
p32
I01
sVdefault_profile_image
p33
I01
sVid
p34
L2223085266L
sVprofile_background_image_url_https
p35
Vhttps://abs.twimg.com/images/themes/theme1/bg.png
p36
sVverified
p37
I00
sVprofile_text_color
p38
V333333
p39
sVprofile_image_url_https
p40
Vhttps://abs.twimg.com/sticky/default_profile_images/default_profile_3_normal.png
p41
sVprofile_sidebar_fill_color
p42
VDDEEF6
p43
sVentities
p44
(dp45
Vdescription
p46
(dp47
Vurls
p48
(lp49
sssVfollowers_count
p50
I2
sVprofile_sidebar_border_color
p51
VC0DEED
p52
sVid_str
p53
V2223085266
p54
sVprofile_background_color
p55
VC0DEED
p56
sVlisted_count
p57
I0
sVis_translation_enabled
p58
I00
sVutc_offset
p59
I32400
sVstatuses_count
p60
I22
sVdescription
p61
V\u5efa\u8a2d\u4e2d
p62
sVfriends_count
p63
I2
sVlocation
p64
V
p65
sVprofile_link_color
p66
V0084B4
p67
sVprofile_image_url
p68
Vhttp://abs.twimg.com/sticky/default_profile_images/default_profile_3_normal.png
p69
sVfollowing
p70
I01
sVgeo_enabled
p71
I00
sVprofile_background_image_url
p72
Vhttp://abs.twimg.com/images/themes/theme1/bg.png
p73
sVscreen_name
p74
Vkawa1125szk
p75
sVlang
p76
Vja
p77
sVprofile_background_tile
p78
I00
sVfavourites_count
p79
I0
sVname
p80
Vshir
p81
sVnotifications
p82
I00
sVurl
p83
NsVcreated_at
p84
VSat Nov 30 13:19:57 +0000 2013
p85
sVcontributors_enabled
p86
I00
sVtime_zone
p87
VIrkutsk
p88
sVprotected
p89
I00
sVdefault_profile
p90
I01
sVis_translator
p91
I00
ssVgeo
p92
NsVin_reply_to_user_id_str
p93
NsVlang
p94
Vja
p95
sVcreated_at
p96
VSun Dec 01 13:55:04 +0000 2013
p97
sVin_reply_to_status_id_str
p98
NsVplace
p99
Nsa(dp100
Vcontributors
p101
NsVtruncated
p102
I00
sVtext
p103
V\u79c1\u306f\u65e5\u672c\u4eba\u3067\u3059\u3002
p104
sVin_reply_to_status_id
p105
NsVid
p106
L406785910093516800L
sVfavorite_count
p107
I0
sVsource
p108
Vweb
p109
sVretweeted
p110
I00
sVcoordinates
p111
NsVentities
p112
(dp113
Vsymbols
p114
(lp115
sVuser_mentions
p116
(lp117
sVhashtags
p118
(lp119
sVurls
p120
(lp121
ssVin_reply_to_screen_name
p122
NsVid_str
p123
V406785910093516800
p124
sVretweet_count
p125
I0
sVin_reply_to_user_id
p126
NsVfavorited
p127
I00
sVuser
p128
(dp129
Vfollow_request_sent
p130
I00
sVprofile_use_background_image
p131
I01
sVdefault_profile_image
p132
I01
sVid
p133
L2223085266L
sVprofile_background_image_url_https
p134
Vhttps://abs.twimg.com/images/themes/theme1/bg.png
p135
sVverified
p136
I00
sVprofile_text_color
p137
V333333
p138
sVprofile_image_url_https
p139
Vhttps://abs.twimg.com/sticky/default_profile_images/default_profile_3_normal.png
p140
sVprofile_sidebar_fill_color
p141
VDDEEF6
p142
sVentities
p143
(dp144
Vdescription
p145
(dp146
Vurls
p147
(lp148
sssVfollowers_count
p149
I2
sVprofile_sidebar_border_color
p150
VC0DEED
p151
sVid_str
p152
V2223085266
p153
sVprofile_background_color
p154
VC0DEED
p155
sVlisted_count
p156
I0
sVis_translation_enabled
p157
I00
sVutc_offset
p158
I32400
sVstatuses_count
p159
I22
sVdescription
p160
V\u5efa\u8a2d\u4e2d
p161
sVfriends_count
p162
I2
sVlocation
p163
g65
sVprofile_link_color
p164
V0084B4
p165
sVprofile_image_url
p166
Vhttp://abs.twimg.com/sticky/default_profile_images/default_profile_3_normal.png
p167
sVfollowing
p168
I01
sVgeo_enabled
p169
I00
sVprofile_background_image_url
p170
Vhttp://abs.twimg.com/images/themes/theme1/bg.png
p171
sVscreen_name
p172
Vkawa1125szk
p173
sVlang
p174
Vja
p175
sVprofile_background_tile
p176
I00
sVfavourites_count
p177
I0
sVname
p178
Vshir
p179
sVnotifications
p180
I00
sVurl
p181
NsVcreated_at
p182
VSat Nov 30 13:19:57 +0000 2013
p183
sVcontributors_enabled
p184
I00
sVtime_zone
p185
VIrkutsk
p186
sVprotected
p187
I00
sVdefault_profile
p188
I01
sVis_translator
p189
I00
ssVgeo
p190
NsVin_reply_to_user_id_str
p191
NsVlang
p192
Vja
p193
sVcreated_at
p194
VSat Nov 30 14:04:53 +0000 2013
p195
sVin_reply_to_status_id_str
p196
NsVplace
p197
Nsa(dp198
Vcontributors
p199
NsVtruncated
p200
I00
sVtext
p201
V\u82f1\u8a9e\uff1f
p202
sVin_reply_to_status_id
p203
NsVid
p204
L406780634451824641L
sVfavorite_count
p205
I0
sVsource
p206
Vweb
p207
sVretweeted
p208
I00
sVcoordinates
p209
NsVentities
p210
(dp211
Vsymbols
p212
(lp213
sVuser_mentions
p214
(lp215
sVhashtags
p216
(lp217
sVurls
p218
(lp219
ssVin_reply_to_screen_name
p220
NsVid_str
p221
V406780634451824641
p222
sVretweet_count
p223
I0
sVin_reply_to_user_id
p224
NsVfavorited
p225
I00
sVuser
p226
(dp227
Vfollow_request_sent
p228
I00
sVprofile_use_background_image
p229
I01
sVdefault_profile_image
p230
I01
sVid
p231
L2223085266L
sVprofile_background_image_url_https
p232
Vhttps://abs.twimg.com/images/themes/theme1/bg.png
p233
sVverified
p234
I00
sVprofile_text_color
p235
V333333
p236
sVprofile_image_url_https
p237
Vhttps://abs.twimg.com/sticky/default_profile_images/default_profile_3_normal.png
p238
sVprofile_sidebar_fill_color
p239
VDDEEF6
p240
sVentities
p241
(dp242
Vdescription
p243
(dp244
Vurls
p245
(lp246
sssVfollowers_count
p247
I2
sVprofile_sidebar_border_color
p248
VC0DEED
p249
sVid_str
p250
V2223085266
p251
sVprofile_background_color
p252
VC0DEED
p253
sVlisted_count
p254
I0
sVis_translation_enabled
p255
I00
sVutc_offset
p256
I32400
sVstatuses_count
p257
I22
sVdescription
p258
V\u5efa\u8a2d\u4e2d
p259
sVfriends_count
p260
I2
sVlocation
p261
g65
sVprofile_link_color
p262
V0084B4
p263
sVprofile_image_url
p264
Vhttp://abs.twimg.com/sticky/default_profile_images/default_profile_3_normal.png
p265
sVfollowing
p266
I01
sVgeo_enabled
p267
I00
sVprofile_background_image_url
p268
Vhttp://abs.twimg.com/images/themes/theme1/bg.png
p269
sVscreen_name
p270
Vkawa1125szk
p271
sVlang
p272
Vja
p273
sVprofile_background_tile
p274
I00
sVfavourites_count
p275
I0
sVname
p276
Vshir
p277
sVnotifications
p278
I00
sVurl
p279
NsVcreated_at
p280
VSat Nov 30 13:19:57 +0000 2013
p281
sVcontributors_enabled
p282
I00
sVtime_zone
p283
VIrkutsk
p284
sVprotected
p285
I00
sVdefault_profile
p286
I01
sVis_translator
p287
I00
ssVgeo
p288
NsVin_reply_to_user_id_str
p289
NsVlang
p290
Vja
p291
sVcreated_at
p292
VSat Nov 30 13:43:55 +0000 2013
p293
sVin_reply_to_status_id_str
p294
NsVplace
p295
Nsa(dp296
Vcontributors
p297
NsVtruncated
p298
I00
sVtext
p299
V\u3044\u308d\u306f\u306b\u307b\u3078\u3068\u3061\u308a\u306c\u308b\u3092\u308f\u304b\u307f\u3088\u306b\u3086\u308b\uff1f
p300
sVin_reply_to_status_id
p301
NsVid
p302
L406780404285181952L
sVfavorite_count
p303
I0
sVsource
p304
Vweb
p305
sVretweeted
p306
I00
sVcoordinates
p307
NsVentities
p308
(dp309
Vsymbols
p310
(lp311
sVuser_mentions
p312
(lp313
sVhashtags
p314
(lp315
sVurls
p316
(lp317
ssVin_reply_to_screen_name
p318
NsVid_str
p319
V406780404285181952
p320
sVretweet_count
p321
I0
sVin_reply_to_user_id
p322
NsVfavorited
p323
I00
sVuser
p324
(dp325
Vfollow_request_sent
p326
I00
sVprofile_use_background_image
p327
I01
sVdefault_profile_image
p328
I01
sVid
p329
L2223085266L
sVprofile_background_image_url_https
p330
Vhttps://abs.twimg.com/images/themes/theme1/bg.png
p331
sVverified
p332
I00
sVprofile_text_color
p333
V333333
p334
sVprofile_image_url_https
p335
Vhttps://abs.twimg.com/sticky/default_profile_images/default_profile_3_normal.png
p336
sVprofile_sidebar_fill_color
p337
VDDEEF6
p338
sVentities
p339
(dp340
Vdescription
p341
(dp342
Vurls
p343
(lp344
sssVfollowers_count
p345
I2
sVprofile_sidebar_border_color
p346
VC0DEED
p347
sVid_str
p348
V2223085266
p349
sVprofile_background_color
p350
VC0DEED
p351
sVlisted_count
p352
I0
sVis_translation_enabled
p353
I00
sVutc_offset
p354
I32400
sVstatuses_count
p355
I22
sVdescription
p356
V\u5efa\u8a2d\u4e2d
p357
sVfriends_count
p358
I2
sVlocation
p359
g65
sVprofile_link_color
p360
V0084B4
p361
sVprofile_image_url
p362
Vhttp://abs.twimg.com/sticky/default_profile_images/default_profile_3_normal.png
p363
sVfollowing
p364
I01
sVgeo_enabled
p365
I00
sVprofile_background_image_url
p366
Vhttp://abs.twimg.com/images/themes/theme1/bg.png
p367
sVscreen_name
p368
Vkawa1125szk
p369
sVlang
p370
Vja
p371
sVprofile_background_tile
p372
I00
sVfavourites_count
p373
I0
sVname
p374
Vshir
p375
sVnotifications
p376
I00
sVurl
p377
NsVcreated_at
p378
VSat Nov 30 13:19:57 +0000 2013
p379
sVcontributors_enabled
p380
I00
sVtime_zone
p381
VIrkutsk
p382
sVprotected
p383
I00
sVdefault_profile
p384
I01
sVis_translator
p385
I00
ssVgeo
p386
NsVin_reply_to_user_id_str
p387
NsVlang
p388
Vja
p389
sVcreated_at
p390
VSat Nov 30 13:43:00 +0000 2013
p391
sVin_reply_to_status_id_str
p392
NsVplace
p393
Nsa(dp394
Vcontributors
p395
NsVtruncated
p396
I00
sVtext
p397
V\u30aa\u30fc\uff01\u30d5\u30a1\u30fc\u30b6\u30fc
p398
sVin_reply_to_status_id
p399
NsVid
p400
L406780267311820800L
sVfavorite_count
p401
I0
sVsource
p402
Vweb
p403
sVretweeted
p404
I00
sVcoordinates
p405
NsVentities
p406
(dp407
Vsymbols
p408
(lp409
sVuser_mentions
p410
(lp411
sVhashtags
p412
(lp413
sVurls
p414
(lp415
ssVin_reply_to_screen_name
p416
NsVid_str
p417
V406780267311820800
p418
sVretweet_count
p419
I0
sVin_reply_to_user_id
p420
NsVfavorited
p421
I00
sVuser
p422
(dp423
Vfollow_request_sent
p424
I00
sVprofile_use_background_image
p425
I01
sVdefault_profile_image
p426
I01
sVid
p427
L2223085266L
sVprofile_background_image_url_https
p428
Vhttps://abs.twimg.com/images/themes/theme1/bg.png
p429
sVverified
p430
I00
sVprofile_text_color
p431
V333333
p432
sVprofile_image_url_https
p433
Vhttps://abs.twimg.com/sticky/default_profile_images/default_profile_3_normal.png
p434
sVprofile_sidebar_fill_color
p435
VDDEEF6
p436
sVentities
p437
(dp438
Vdescription
p439
(dp440
Vurls
p441
(lp442
sssVfollowers_count
p443
I2
sVprofile_sidebar_border_color
p444
VC0DEED
p445
sVid_str
p446
V2223085266
p447
sVprofile_background_color
p448
VC0DEED
p449
sVlisted_count
p450
I0
sVis_translation_enabled
p451
I00
sVutc_offset
p452
I32400
sVstatuses_count
p453
I22
sVdescription
p454
V\u5efa\u8a2d\u4e2d
p455
sVfriends_count
p456
I2
sVlocation
p457
g65
sVprofile_link_color
p458
V0084B4
p459
sVprofile_image_url
p460
Vhttp://abs.twimg.com/sticky/default_profile_images/default_profile_3_normal.png
p461
sVfollowing
p462
I01
sVgeo_enabled
p463
I00
sVprofile_background_image_url
p464
Vhttp://abs.twimg.com/images/themes/theme1/bg.png
p465
sVscreen_name
p466
Vkawa1125szk
p467
sVlang
p468
Vja
p469
sVprofile_background_tile
p470
I00
sVfavourites_count
p471
I0
sVname
p472
Vshir
p473
sVnotifications
p474
I00
sVurl
p475
NsVcreated_at
p476
VSat Nov 30 13:19:57 +0000 2013
p477
sVcontributors_enabled
p478
I00
sVtime_zone
p479
VIrkutsk
p480
sVprotected
p481
I00
sVdefault_profile
p482
I01
sVis_translator
p483
I00
ssVgeo
p484
NsVin_reply_to_user_id_str
p485
NsVlang
p486
Vja
p487
sVcreated_at
p488
VSat Nov 30 13:42:27 +0000 2013
p489
sVin_reply_to_status_id_str
p490
NsVplace
p491
Nsa(dp492
Vcontributors
p493
NsVtruncated
p494
I00
sVtext
p495
V\u7d71\u8a08\u529b\u5b66
p496
sVin_reply_to_status_id
p497
NsVid
p498
L406780203923279872L
sVfavorite_count
p499
I0
sVsource
p500
Vweb
p501
sVretweeted
p502
I00
sVcoordinates
p503
NsVentities
p504
(dp505
Vsymbols
p506
(lp507
sVuser_mentions
p508
(lp509
sVhashtags
p510
(lp511
sVurls
p512
(lp513
ssVin_reply_to_screen_name
p514
NsVid_str
p515
V406780203923279872
p516
sVretweet_count
p517
I0
sVin_reply_to_user_id
p518
NsVfavorited
p519
I00
sVuser
p520
(dp521
Vfollow_request_sent
p522
I00
sVprofile_use_background_image
p523
I01
sVdefault_profile_image
p524
I01
sVid
p525
L2223085266L
sVprofile_background_image_url_https
p526
Vhttps://abs.twimg.com/images/themes/theme1/bg.png
p527
sVverified
p528
I00
sVprofile_text_color
p529
V333333
p530
sVprofile_image_url_https
p531
Vhttps://abs.twimg.com/sticky/default_profile_images/default_profile_3_normal.png
p532
sVprofile_sidebar_fill_color
p533
VDDEEF6
p534
sVentities
p535
(dp536
Vdescription
p537
(dp538
Vurls
p539
(lp540
sssVfollowers_count
p541
I2
sVprofile_sidebar_border_color
p542
VC0DEED
p543
sVid_str
p544
V2223085266
p545
sVprofile_background_color
p546
VC0DEED
p547
sVlisted_count
p548
I0
sVis_translation_enabled
p549
I00
sVutc_offset
p550
I32400
sVstatuses_count
p551
I22
sVdescription
p552
V\u5efa\u8a2d\u4e2d
p553
sVfriends_count
p554
I2
sVlocation
p555
g65
sVprofile_link_color
p556
V0084B4
p557
sVprofile_image_url
p558
Vhttp://abs.twimg.com/sticky/default_profile_images/default_profile_3_normal.png
p559
sVfollowing
p560
I01
sVgeo_enabled
p561
I00
sVprofile_background_image_url
p562
Vhttp://abs.twimg.com/images/themes/theme1/bg.png
p563
sVscreen_name
p564
Vkawa1125szk
p565
sVlang
p566
Vja
p567
sVprofile_background_tile
p568
I00
sVfavourites_count
p569
I0
sVname
p570
Vshir
p571
sVnotifications
p572
I00
sVurl
p573
NsVcreated_at
p574
VSat Nov 30 13:19:57 +0000 2013
p575
sVcontributors_enabled
p576
I00
sVtime_zone
p577
VIrkutsk
p578
sVprotected
p579
I00
sVdefault_profile
p580
I01
sVis_translator
p581
I00
ssVgeo
p582
NsVin_reply_to_user_id_str
p583
NsVlang
p584
Vja
p585
sVcreated_at
p586
VSat Nov 30 13:42:12 +0000 2013
p587
sVin_reply_to_status_id_str
p588
NsVplace
p589
Nsa(dp590
Vcontributors
p591
NsVtruncated
p592
I00
sVtext
p593
V\u30d8\u30d6\u30f3\u30ba\u30fb\u30c9\u30a2\u30fc
p594
sVin_reply_to_status_id
p595
NsVid
p596
L406780159572709376L
sVfavorite_count
p597
I0
sVsource
p598
Vweb
p599
sVretweeted
p600
I00
sVcoordinates
p601
NsVentities
p602
(dp603
Vsymbols
p604
(lp605
sVuser_mentions
p606
(lp607
sVhashtags
p608
(lp609
sVurls
p610
(lp611
ssVin_reply_to_screen_name
p612
NsVid_str
p613
V406780159572709376
p614
sVretweet_count
p615
I0
sVin_reply_to_user_id
p616
NsVfavorited
p617
I00
sVuser
p618
(dp619
Vfollow_request_sent
p620
I00
sVprofile_use_background_image
p621
I01
sVdefault_profile_image
p622
I01
sVid
p623
L2223085266L
sVprofile_background_image_url_https
p624
Vhttps://abs.twimg.com/images/themes/theme1/bg.png
p625
sVverified
p626
I00
sVprofile_text_color
p627
V333333
p628
sVprofile_image_url_https
p629
Vhttps://abs.twimg.com/sticky/default_profile_images/default_profile_3_normal.png
p630
sVprofile_sidebar_fill_color
p631
VDDEEF6
p632
sVentities
p633
(dp634
Vdescription
p635
(dp636
Vurls
p637
(lp638
sssVfollowers_count
p639
I2
sVprofile_sidebar_border_color
p640
VC0DEED
p641
sVid_str
p642
V2223085266
p643
sVprofile_background_color
p644
VC0DEED
p645
sVlisted_count
p646
I0
sVis_translation_enabled
p647
I00
sVutc_offset
p648
I32400
sVstatuses_count
p649
I22
sVdescription
p650
V\u5efa\u8a2d\u4e2d
p651
sVfriends_count
p652
I2
sVlocation
p653
g65
sVprofile_link_color
p654
V0084B4
p655
sVprofile_image_url
p656
Vhttp://abs.twimg.com/sticky/default_profile_images/default_profile_3_normal.png
p657
sVfollowing
p658
I01
sVgeo_enabled
p659
I00
sVprofile_background_image_url
p660
Vhttp://abs.twimg.com/images/themes/theme1/bg.png
p661
sVscreen_name
p662
Vkawa1125szk
p663
sVlang
p664
Vja
p665
sVprofile_background_tile
p666
I00
sVfavourites_count
p667
I0
sVname
p668
Vshir
p669
sVnotifications
p670
I00
sVurl
p671
NsVcreated_at
p672
VSat Nov 30 13:19:57 +0000 2013
p673
sVcontributors_enabled
p674
I00
sVtime_zone
p675
VIrkutsk
p676
sVprotected
p677
I00
sVdefault_profile
p678
I01
sVis_translator
p679
I00
ssVgeo
p680
NsVin_reply_to_user_id_str
p681
NsVlang
p682
Vja
p683
sVcreated_at
p684
VSat Nov 30 13:42:02 +0000 2013
p685
sVin_reply_to_status_id_str
p686
NsVplace
p687
Nsa(dp688
Vcontributors
p689
NsVtruncated
p690
I00
sVtext
p691
V\u96fb\u6c17\u30b9\u30bf\u30f3\u30c9
p692
sVin_reply_to_status_id
p693
NsVid
p694
L406780118695022592L
sVfavorite_count
p695
I0
sVsource
p696
Vweb
p697
sVretweeted
p698
I00
sVcoordinates
p699
NsVentities
p700
(dp701
Vsymbols
p702
(lp703
sVuser_mentions
p704
(lp705
sVhashtags
p706
(lp707
sVurls
p708
(lp709
ssVin_reply_to_screen_name
p710
NsVid_str
p711
V406780118695022592
p712
sVretweet_count
p713
I0
sVin_reply_to_user_id
p714
NsVfavorited
p715
I00
sVuser
p716
(dp717
Vfollow_request_sent
p718
I00
sVprofile_use_background_image
p719
I01
sVdefault_profile_image
p720
I01
sVid
p721
L2223085266L
sVprofile_background_image_url_https
p722
Vhttps://abs.twimg.com/images/themes/theme1/bg.png
p723
sVverified
p724
I00
sVprofile_text_color
p725
V333333
p726
sVprofile_image_url_https
p727
Vhttps://abs.twimg.com/sticky/default_profile_images/default_profile_3_normal.png
p728
sVprofile_sidebar_fill_color
p729
VDDEEF6
p730
sVentities
p731
(dp732
Vdescription
p733
(dp734
Vurls
p735
(lp736
sssVfollowers_count
p737
I2
sVprofile_sidebar_border_color
p738
VC0DEED
p739
sVid_str
p740
V2223085266
p741
sVprofile_background_color
p742
VC0DEED
p743
sVlisted_count
p744
I0
sVis_translation_enabled
p745
I00
sVutc_offset
p746
I32400
sVstatuses_count
p747
I22
sVdescription
p748
V\u5efa\u8a2d\u4e2d
p749
sVfriends_count
p750
I2
sVlocation
p751
g65
sVprofile_link_color
p752
V0084B4
p753
sVprofile_image_url
p754
Vhttp://abs.twimg.com/sticky/default_profile_images/default_profile_3_normal.png
p755
sVfollowing
p756
I01
sVgeo_enabled
p757
I00
sVprofile_background_image_url
p758
Vhttp://abs.twimg.com/images/themes/theme1/bg.png
p759
sVscreen_name
p760
Vkawa1125szk
p761
sVlang
p762
Vja
p763
sVprofile_background_tile
p764
I00
sVfavourites_count
p765
I0
sVname
p766
Vshir
p767
sVnotifications
p768
I00
sVurl
p769
NsVcreated_at
p770
VSat Nov 30 13:19:57 +0000 2013
p771
sVcontributors_enabled
p772
I00
sVtime_zone
p773
VIrkutsk
p774
sVprotected
p775
I00
sVdefault_profile
p776
I01
sVis_translator
p777
I00
ssVgeo
p778
NsVin_reply_to_user_id_str
p779
NsVlang
p780
Vja
p781
sVcreated_at
p782
VSat Nov 30 13:41:52 +0000 2013
p783
sVin_reply_to_status_id_str
p784
NsVplace
p785
Nsa(dp786
Vcontributors
p787
NsVtruncated
p788
I00
sVtext
p789
V\u306f\u3063\u304d\u308a\u8a71\u3059\u3002\u304b\u3064\u3001\u3086\u3063\u304f\u308a\u8a71\u3059\u3002
p790
sVin_reply_to_status_id
p791
NsVid
p792
L406780067444830208L
sVfavorite_count
p793
I0
sVsource
p794
Vweb
p795
sVretweeted
p796
I00
sVcoordinates
p797
NsVentities
p798
(dp799
Vsymbols
p800
(lp801
sVuser_mentions
p802
(lp803
sVhashtags
p804
(lp805
sVurls
p806
(lp807
ssVin_reply_to_screen_name
p808
NsVid_str
p809
V406780067444830208
p810
sVretweet_count
p811
I0
sVin_reply_to_user_id
p812
NsVfavorited
p813
I00
sVuser
p814
(dp815
Vfollow_request_sent
p816
I00
sVprofile_use_background_image
p817
I01
sVdefault_profile_image
p818
I01
sVid
p819
L2223085266L
sVprofile_background_image_url_https
p820
Vhttps://abs.twimg.com/images/themes/theme1/bg.png
p821
sVverified
p822
I00
sVprofile_text_color
p823
V333333
p824
sVprofile_image_url_https
p825
Vhttps://abs.twimg.com/sticky/default_profile_images/default_profile_3_normal.png
p826
sVprofile_sidebar_fill_color
p827
VDDEEF6
p828
sVentities
p829
(dp830
Vdescription
p831
(dp832
Vurls
p833
(lp834
sssVfollowers_count
p835
I2
sVprofile_sidebar_border_color
p836
VC0DEED
p837
sVid_str
p838
V2223085266
p839
sVprofile_background_color
p840
VC0DEED
p841
sVlisted_count
p842
I0
sVis_translation_enabled
p843
I00
sVutc_offset
p844
I32400
sVstatuses_count
p845
I22
sVdescription
p846
V\u5efa\u8a2d\u4e2d
p847
sVfriends_count
p848
I2
sVlocation
p849
g65
sVprofile_link_color
p850
V0084B4
p851
sVprofile_image_url
p852
Vhttp://abs.twimg.com/sticky/default_profile_images/default_profile_3_normal.png
p853
sVfollowing
p854
I01
sVgeo_enabled
p855
I00
sVprofile_background_image_url
p856
Vhttp://abs.twimg.com/images/themes/theme1/bg.png
p857
sVscreen_name
p858
Vkawa1125szk
p859
sVlang
p860
Vja
p861
sVprofile_background_tile
p862
I00
sVfavourites_count
p863
I0
sVname
p864
Vshir
p865
sVnotifications
p866
I00
sVurl
p867
NsVcreated_at
p868
VSat Nov 30 13:19:57 +0000 2013
p869
sVcontributors_enabled
p870
I00
sVtime_zone
p871
VIrkutsk
p872
sVprotected
p873
I00
sVdefault_profile
p874
I01
sVis_translator
p875
I00
ssVgeo
p876
NsVin_reply_to_user_id_str
p877
NsVlang
p878
Vja
p879
sVcreated_at
p880
VSat Nov 30 13:41:40 +0000 2013
p881
sVin_reply_to_status_id_str
p882
NsVplace
p883
Nsa(dp884
Vcontributors
p885
NsVtruncated
p886
I00
sVtext
p887
V\u305d\u308c\u8a00\u3063\u3066\u3057\u307e\u3063\u3066\u3044\u3044\u3093\u3067\u3057\u3087\u3046\u304b\uff1f
p888
sVin_reply_to_status_id
p889
NsVid
p890
L406779877405122560L
sVfavorite_count
p891
I0
sVsource
p892
Vweb
p893
sVretweeted
p894
I00
sVcoordinates
p895
NsVentities
p896
(dp897
Vsymbols
p898
(lp899
sVuser_mentions
p900
(lp901
sVhashtags
p902
(lp903
sVurls
p904
(lp905
ssVin_reply_to_screen_name
p906
NsVid_str
p907
V406779877405122560
p908
sVretweet_count
p909
I0
sVin_reply_to_user_id
p910
NsVfavorited
p911
I00
sVuser
p912
(dp913
Vfollow_request_sent
p914
I00
sVprofile_use_background_image
p915
I01
sVdefault_profile_image
p916
I01
sVid
p917
L2223085266L
sVprofile_background_image_url_https
p918
Vhttps://abs.twimg.com/images/themes/theme1/bg.png
p919
sVverified
p920
I00
sVprofile_text_color
p921
V333333
p922
sVprofile_image_url_https
p923
Vhttps://abs.twimg.com/sticky/default_profile_images/default_profile_3_normal.png
p924
sVprofile_sidebar_fill_color
p925
VDDEEF6
p926
sVentities
p927
(dp928
Vdescription
p929
(dp930
Vurls
p931
(lp932
sssVfollowers_count
p933
I2
sVprofile_sidebar_border_color
p934
VC0DEED
p935
sVid_str
p936
V2223085266
p937
sVprofile_background_color
p938
VC0DEED
p939
sVlisted_count
p940
I0
sVis_translation_enabled
p941
I00
sVutc_offset
p942
I32400
sVstatuses_count
p943
I22
sVdescription
p944
V\u5efa\u8a2d\u4e2d
p945
sVfriends_count
p946
I2
sVlocation
p947
g65
sVprofile_link_color
p948
V0084B4
p949
sVprofile_image_url
p950
Vhttp://abs.twimg.com/sticky/default_profile_images/default_profile_3_normal.png
p951
sVfollowing
p952
I01
sVgeo_enabled
p953
I00
sVprofile_background_image_url
p954
Vhttp://abs.twimg.com/images/themes/theme1/bg.png
p955
sVscreen_name
p956
Vkawa1125szk
p957
sVlang
p958
Vja
p959
sVprofile_background_tile
p960
I00
sVfavourites_count
p961
I0
sVname
p962
Vshir
p963
sVnotifications
p964
I00
sVurl
p965
NsVcreated_at
p966
VSat Nov 30 13:19:57 +0000 2013
p967
sVcontributors_enabled
p968
I00
sVtime_zone
p969
VIrkutsk
p970
sVprotected
p971
I00
sVdefault_profile
p972
I01
sVis_translator
p973
I00
ssVgeo
p974
NsVin_reply_to_user_id_str
p975
NsVlang
p976
Vja
p977
sVcreated_at
p978
VSat Nov 30 13:40:55 +0000 2013
p979
sVin_reply_to_status_id_str
p980
NsVplace
p981
Nsa(dp982
Vcontributors
p983
NsVtruncated
p984
I00
sVtext
p985
V\u6212\u3081\u3002
p986
sVin_reply_to_status_id
p987
NsVid
p988
L406779825668378624L
sVfavorite_count
p989
I0
sVsource
p990
Vweb
p991
sVretweeted
p992
I00
sVcoordinates
p993
NsVentities
p994
(dp995
Vsymbols
p996
(lp997
sVuser_mentions
p998
(lp999
sVhashtags
p1000
(lp1001
sVurls
p1002
(lp1003
ssVin_reply_to_screen_name
p1004
NsVid_str
p1005
V406779825668378624
p1006
sVretweet_count
p1007
I0
sVin_reply_to_user_id
p1008
NsVfavorited
p1009
I00
sVuser
p1010
(dp1011
Vfollow_request_sent
p1012
I00
sVprofile_use_background_image
p1013
I01
sVdefault_profile_image
p1014
I01
sVid
p1015
L2223085266L
sVprofile_background_image_url_https
p1016
Vhttps://abs.twimg.com/images/themes/theme1/bg.png
p1017
sVverified
p1018
I00
sVprofile_text_color
p1019
V333333
p1020
sVprofile_image_url_https
p1021
Vhttps://abs.twimg.com/sticky/default_profile_images/default_profile_3_normal.png
p1022
sVprofile_sidebar_fill_color
p1023
VDDEEF6
p1024
sVentities
p1025
(dp1026
Vdescription
p1027
(dp1028
Vurls
p1029
(lp1030
sssVfollowers_count
p1031
I2
sVprofile_sidebar_border_color
p1032
VC0DEED
p1033
sVid_str
p1034
V2223085266
p1035
sVprofile_background_color
p1036
VC0DEED
p1037
sVlisted_count
p1038
I0
sVis_translation_enabled
p1039
I00
sVutc_offset
p1040
I32400
sVstatuses_count
p1041
I22
sVdescription
p1042
V\u5efa\u8a2d\u4e2d
p1043
sVfriends_count
p1044
I2
sVlocation
p1045
g65
sVprofile_link_color
p1046
V0084B4
p1047
sVprofile_image_url
p1048
Vhttp://abs.twimg.com/sticky/default_profile_images/default_profile_3_normal.png
p1049
sVfollowing
p1050
I01
sVgeo_enabled
p1051
I00
sVprofile_background_image_url
p1052
Vhttp://abs.twimg.com/images/themes/theme1/bg.png
p1053
sVscreen_name
p1054
Vkawa1125szk
p1055
sVlang
p1056
Vja
p1057
sVprofile_background_tile
p1058
I00
sVfavourites_count
p1059
I0
sVname
p1060
Vshir
p1061
sVnotifications
p1062
I00
sVurl
p1063
NsVcreated_at
p1064
VSat Nov 30 13:19:57 +0000 2013
p1065
sVcontributors_enabled
p1066
I00
sVtime_zone
p1067
VIrkutsk
p1068
sVprotected
p1069
I00
sVdefault_profile
p1070
I01
sVis_translator
p1071
I00
ssVgeo
p1072
NsVin_reply_to_user_id_str
p1073
NsVlang
p1074
Vja
p1075
sVcreated_at
p1076
VSat Nov 30 13:40:42 +0000 2013
p1077
sVin_reply_to_status_id_str
p1078
NsVplace
p1079
Nsa(dp1080
Vcontributors
p1081
NsVtruncated
p1082
I00
sVtext
p1083
V\u65e9\u53e3\u306f\u3044\u3051\u306a\u3044
p1084
sVin_reply_to_status_id
p1085
NsVid
p1086
L406779795930755073L
sVfavorite_count
p1087
I0
sVsource
p1088
Vweb
p1089
sVretweeted
p1090
I00
sVcoordinates
p1091
NsVentities
p1092
(dp1093
Vsymbols
p1094
(lp1095
sVuser_mentions
p1096
(lp1097
sVhashtags
p1098
(lp1099
sVurls
p1100
(lp1101
ssVin_reply_to_screen_name
p1102
NsVid_str
p1103
V406779795930755073
p1104
sVretweet_count
p1105
I0
sVin_reply_to_user_id
p1106
NsVfavorited
p1107
I00
sVuser
p1108
(dp1109
Vfollow_request_sent
p1110
I00
sVprofile_use_background_image
p1111
I01
sVdefault_profile_image
p1112
I01
sVid
p1113
L2223085266L
sVprofile_background_image_url_https
p1114
Vhttps://abs.twimg.com/images/themes/theme1/bg.png
p1115
sVverified
p1116
I00
sVprofile_text_color
p1117
V333333
p1118
sVprofile_image_url_https
p1119
Vhttps://abs.twimg.com/sticky/default_profile_images/default_profile_3_normal.png
p1120
sVprofile_sidebar_fill_color
p1121
VDDEEF6
p1122
sVentities
p1123
(dp1124
Vdescription
p1125
(dp1126
Vurls
p1127
(lp1128
sssVfollowers_count
p1129
I2
sVprofile_sidebar_border_color
p1130
VC0DEED
p1131
sVid_str
p1132
V2223085266
p1133
sVprofile_background_color
p1134
VC0DEED
p1135
sVlisted_count
p1136
I0
sVis_translation_enabled
p1137
I00
sVutc_offset
p1138
I32400
sVstatuses_count
p1139
I22
sVdescription
p1140
V\u5efa\u8a2d\u4e2d
p1141
sVfriends_count
p1142
I2
sVlocation
p1143
g65
sVprofile_link_color
p1144
V0084B4
p1145
sVprofile_image_url
p1146
Vhttp://abs.twimg.com/sticky/default_profile_images/default_profile_3_normal.png
p1147
sVfollowing
p1148
I01
sVgeo_enabled
p1149
I00
sVprofile_background_image_url
p1150
Vhttp://abs.twimg.com/images/themes/theme1/bg.png
p1151
sVscreen_name
p1152
Vkawa1125szk
p1153
sVlang
p1154
Vja
p1155
sVprofile_background_tile
p1156
I00
sVfavourites_count
p1157
I0
sVname
p1158
Vshir
p1159
sVnotifications
p1160
I00
sVurl
p1161
NsVcreated_at
p1162
VSat Nov 30 13:19:57 +0000 2013
p1163
sVcontributors_enabled
p1164
I00
sVtime_zone
p1165
VIrkutsk
p1166
sVprotected
p1167
I00
sVdefault_profile
p1168
I01
sVis_translator
p1169
I00
ssVgeo
p1170
NsVin_reply_to_user_id_str
p1171
NsVlang
p1172
Vja
p1173
sVcreated_at
p1174
VSat Nov 30 13:40:35 +0000 2013
p1175
sVin_reply_to_status_id_str
p1176
NsVplace
p1177
Nsa(dp1178
Vcontributors
p1179
NsVtruncated
p1180
I00
sVtext
p1181
V\u30cb\u30b7\u30ad\u30d8\u30d3\u518d\u3073
p1182
sVin_reply_to_status_id
p1183
NsVid
p1184
L406779743808147456L
sVfavorite_count
p1185
I0
sVsource
p1186
Vweb
p1187
sVretweeted
p1188
I00
sVcoordinates
p1189
NsVentities
p1190
(dp1191
Vsymbols
p1192
(lp1193
sVuser_mentions
p1194
(lp1195
sVhashtags
p1196
(lp1197
sVurls
p1198
(lp1199
ssVin_reply_to_screen_name
p1200
NsVid_str
p1201
V406779743808147456
p1202
sVretweet_count
p1203
I0
sVin_reply_to_user_id
p1204
NsVfavorited
p1205
I00
sVuser
p1206
(dp1207
Vfollow_request_sent
p1208
I00
sVprofile_use_background_image
p1209
I01
sVdefault_profile_image
p1210
I01
sVid
p1211
L2223085266L
sVprofile_background_image_url_https
p1212
Vhttps://abs.twimg.com/images/themes/theme1/bg.png
p1213
sVverified
p1214
I00
sVprofile_text_color
p1215
V333333
p1216
sVprofile_image_url_https
p1217
Vhttps://abs.twimg.com/sticky/default_profile_images/default_profile_3_normal.png
p1218
sVprofile_sidebar_fill_color
p1219
VDDEEF6
p1220
sVentities
p1221
(dp1222
Vdescription
p1223
(dp1224
Vurls
p1225
(lp1226
sssVfollowers_count
p1227
I2
sVprofile_sidebar_border_color
p1228
VC0DEED
p1229
sVid_str
p1230
V2223085266
p1231
sVprofile_background_color
p1232
VC0DEED
p1233
sVlisted_count
p1234
I0
sVis_translation_enabled
p1235
I00
sVutc_offset
p1236
I32400
sVstatuses_count
p1237
I22
sVdescription
p1238
V\u5efa\u8a2d\u4e2d
p1239
sVfriends_count
p1240
I2
sVlocation
p1241
g65
sVprofile_link_color
p1242
V0084B4
p1243
sVprofile_image_url
p1244
Vhttp://abs.twimg.com/sticky/default_profile_images/default_profile_3_normal.png
p1245
sVfollowing
p1246
I01
sVgeo_enabled
p1247
I00
sVprofile_background_image_url
p1248
Vhttp://abs.twimg.com/images/themes/theme1/bg.png
p1249
sVscreen_name
p1250
Vkawa1125szk
p1251
sVlang
p1252
Vja
p1253
sVprofile_background_tile
p1254
I00
sVfavourites_count
p1255
I0
sVname
p1256
Vshir
p1257
sVnotifications
p1258
I00
sVurl
p1259
NsVcreated_at
p1260
VSat Nov 30 13:19:57 +0000 2013
p1261
sVcontributors_enabled
p1262
I00
sVtime_zone
p1263
VIrkutsk
p1264
sVprotected
p1265
I00
sVdefault_profile
p1266
I01
sVis_translator
p1267
I00
ssVgeo
p1268
NsVin_reply_to_user_id_str
p1269
NsVlang
p1270
Vja
p1271
sVcreated_at
p1272
VSat Nov 30 13:40:23 +0000 2013
p1273
sVin_reply_to_status_id_str
p1274
NsVplace
p1275
Nsa(dp1276
Vcontributors
p1277
NsVtruncated
p1278
I00
sVtext
p1279
V\u5b66\u751f\u6f2b\u624d
p1280
sVin_reply_to_status_id
p1281
NsVid
p1282
L406779676028190720L
sVfavorite_count
p1283
I0
sVsource
p1284
Vweb
p1285
sVretweeted
p1286
I00
sVcoordinates
p1287
NsVentities
p1288
(dp1289
Vsymbols
p1290
(lp1291
sVuser_mentions
p1292
(lp1293
sVhashtags
p1294
(lp1295
sVurls
p1296
(lp1297
ssVin_reply_to_screen_name
p1298
NsVid_str
p1299
V406779676028190720
p1300
sVretweet_count
p1301
I0
sVin_reply_to_user_id
p1302
NsVfavorited
p1303
I00
sVuser
p1304
(dp1305
Vfollow_request_sent
p1306
I00
sVprofile_use_background_image
p1307
I01
sVdefault_profile_image
p1308
I01
sVid
p1309
L2223085266L
sVprofile_background_image_url_https
p1310
Vhttps://abs.twimg.com/images/themes/theme1/bg.png
p1311
sVverified
p1312
I00
sVprofile_text_color
p1313
V333333
p1314
sVprofile_image_url_https
p1315
Vhttps://abs.twimg.com/sticky/default_profile_images/default_profile_3_normal.png
p1316
sVprofile_sidebar_fill_color
p1317
VDDEEF6
p1318
sVentities
p1319
(dp1320
Vdescription
p1321
(dp1322
Vurls
p1323
(lp1324
sssVfollowers_count
p1325
I2
sVprofile_sidebar_border_color
p1326
VC0DEED
p1327
sVid_str
p1328
V2223085266
p1329
sVprofile_background_color
p1330
VC0DEED
p1331
sVlisted_count
p1332
I0
sVis_translation_enabled
p1333
I00
sVutc_offset
p1334
I32400
sVstatuses_count
p1335
I22
sVdescription
p1336
V\u5efa\u8a2d\u4e2d
p1337
sVfriends_count
p1338
I2
sVlocation
p1339
g65
sVprofile_link_color
p1340
V0084B4
p1341
sVprofile_image_url
p1342
Vhttp://abs.twimg.com/sticky/default_profile_images/default_profile_3_normal.png
p1343
sVfollowing
p1344
I01
sVgeo_enabled
p1345
I00
sVprofile_background_image_url
p1346
Vhttp://abs.twimg.com/images/themes/theme1/bg.png
p1347
sVscreen_name
p1348
Vkawa1125szk
p1349
sVlang
p1350
Vja
p1351
sVprofile_background_tile
p1352
I00
sVfavourites_count
p1353
I0
sVname
p1354
Vshir
p1355
sVnotifications
p1356
I00
sVurl
p1357
NsVcreated_at
p1358
VSat Nov 30 13:19:57 +0000 2013
p1359
sVcontributors_enabled
p1360
I00
sVtime_zone
p1361
VIrkutsk
p1362
sVprotected
p1363
I00
sVdefault_profile
p1364
I01
sVis_translator
p1365
I00
ssVgeo
p1366
NsVin_reply_to_user_id_str
p1367
NsVlang
p1368
Vja
p1369
sVcreated_at
p1370
VSat Nov 30 13:40:07 +0000 2013
p1371
sVin_reply_to_status_id_str
p1372
NsVplace
p1373
Nsa(dp1374
Vcontributors
p1375
NsVtruncated
p1376
I00
sVtext
p1377
V\u3064\u3063\u3053\u307f\u3068\u306f
p1378
sVin_reply_to_status_id
p1379
NsVid
p1380
L406779650866548738L
sVfavorite_count
p1381
I0
sVsource
p1382
Vweb
p1383
sVretweeted
p1384
I00
sVcoordinates
p1385
NsVentities
p1386
(dp1387
Vsymbols
p1388
(lp1389
sVuser_mentions
p1390
(lp1391
sVhashtags
p1392
(lp1393
sVurls
p1394
(lp1395
ssVin_reply_to_screen_name
p1396
NsVid_str
p1397
V406779650866548738
p1398
sVretweet_count
p1399
I0
sVin_reply_to_user_id
p1400
NsVfavorited
p1401
I00
sVuser
p1402
(dp1403
Vfollow_request_sent
p1404
I00
sVprofile_use_background_image
p1405
I01
sVdefault_profile_image
p1406
I01
sVid
p1407
L2223085266L
sVprofile_background_image_url_https
p1408
Vhttps://abs.twimg.com/images/themes/theme1/bg.png
p1409
sVverified
p1410
I00
sVprofile_text_color
p1411
V333333
p1412
sVprofile_image_url_https
p1413
Vhttps://abs.twimg.com/sticky/default_profile_images/default_profile_3_normal.png
p1414
sVprofile_sidebar_fill_color
p1415
VDDEEF6
p1416
sVentities
p1417
(dp1418
Vdescription
p1419
(dp1420
Vurls
p1421
(lp1422
sssVfollowers_count
p1423
I2
sVprofile_sidebar_border_color
p1424
VC0DEED
p1425
sVid_str
p1426
V2223085266
p1427
sVprofile_background_color
p1428
VC0DEED
p1429
sVlisted_count
p1430
I0
sVis_translation_enabled
p1431
I00
sVutc_offset
p1432
I32400
sVstatuses_count
p1433
I22
sVdescription
p1434
V\u5efa\u8a2d\u4e2d
p1435
sVfriends_count
p1436
I2
sVlocation
p1437
g65
sVprofile_link_color
p1438
V0084B4
p1439
sVprofile_image_url
p1440
Vhttp://abs.twimg.com/sticky/default_profile_images/default_profile_3_normal.png
p1441
sVfollowing
p1442
I01
sVgeo_enabled
p1443
I00
sVprofile_background_image_url
p1444
Vhttp://abs.twimg.com/images/themes/theme1/bg.png
p1445
sVscreen_name
p1446
Vkawa1125szk
p1447
sVlang
p1448
Vja
p1449
sVprofile_background_tile
p1450
I00
sVfavourites_count
p1451
I0
sVname
p1452
Vshir
p1453
sVnotifications
p1454
I00
sVurl
p1455
NsVcreated_at
p1456
VSat Nov 30 13:19:57 +0000 2013
p1457
sVcontributors_enabled
p1458
I00
sVtime_zone
p1459
VIrkutsk
p1460
sVprotected
p1461
I00
sVdefault_profile
p1462
I01
sVis_translator
p1463
I00
ssVgeo
p1464
NsVin_reply_to_user_id_str
p1465
NsVlang
p1466
Vja
p1467
sVcreated_at
p1468
VSat Nov 30 13:40:01 +0000 2013
p1469
sVin_reply_to_status_id_str
p1470
NsVplace
p1471
Nsa(dp1472
Vcontributors
p1473
NsVtruncated
p1474
I00
sVtext
p1475
V\u672c\u65e5\u306f\u6674\u5929\u306a\u308a
p1476
sVin_reply_to_status_id
p1477
NsVid
p1478
L406778691851522049L
sVfavorite_count
p1479
I0
sVsource
p1480
Vweb
p1481
sVretweeted
p1482
I00
sVcoordinates
p1483
NsVentities
p1484
(dp1485
Vsymbols
p1486
(lp1487
sVuser_mentions
p1488
(lp1489
sVhashtags
p1490
(lp1491
sVurls
p1492
(lp1493
ssVin_reply_to_screen_name
p1494
NsVid_str
p1495
V406778691851522049
p1496
sVretweet_count
p1497
I0
sVin_reply_to_user_id
p1498
NsVfavorited
p1499
I00
sVuser
p1500
(dp1501
Vfollow_request_sent
p1502
I00
sVprofile_use_background_image
p1503
I01
sVdefault_profile_image
p1504
I01
sVid
p1505
L2223085266L
sVprofile_background_image_url_https
p1506
Vhttps://abs.twimg.com/images/themes/theme1/bg.png
p1507
sVverified
p1508
I00
sVprofile_text_color
p1509
V333333
p1510
sVprofile_image_url_https
p1511
Vhttps://abs.twimg.com/sticky/default_profile_images/default_profile_3_normal.png
p1512
sVprofile_sidebar_fill_color
p1513
VDDEEF6
p1514
sVentities
p1515
(dp1516
Vdescription
p1517
(dp1518
Vurls
p1519
(lp1520
sssVfollowers_count
p1521
I2
sVprofile_sidebar_border_color
p1522
VC0DEED
p1523
sVid_str
p1524
V2223085266
p1525
sVprofile_background_color
p1526
VC0DEED
p1527
sVlisted_count
p1528
I0
sVis_translation_enabled
p1529
I00
sVutc_offset
p1530
I32400
sVstatuses_count
p1531
I22
sVdescription
p1532
V\u5efa\u8a2d\u4e2d
p1533
sVfriends_count
p1534
I2
sVlocation
p1535
g65
sVprofile_link_color
p1536
V0084B4
p1537
sVprofile_image_url
p1538
Vhttp://abs.twimg.com/sticky/default_profile_images/default_profile_3_normal.png
p1539
sVfollowing
p1540
I01
sVgeo_enabled
p1541
I00
sVprofile_background_image_url
p1542
Vhttp://abs.twimg.com/images/themes/theme1/bg.png
p1543
sVscreen_name
p1544
Vkawa1125szk
p1545
sVlang
p1546
Vja
p1547
sVprofile_background_tile
p1548
I00
sVfavourites_count
p1549
I0
sVname
p1550
Vshir
p1551
sVnotifications
p1552
I00
sVurl
p1553
NsVcreated_at
p1554
VSat Nov 30 13:19:57 +0000 2013
p1555
sVcontributors_enabled
p1556
I00
sVtime_zone
p1557
VIrkutsk
p1558
sVprotected
p1559
I00
sVdefault_profile
p1560
I01
sVis_translator
p1561
I00
ssVgeo
p1562
NsVin_reply_to_user_id_str
p1563
NsVlang
p1564
Vja
p1565
sVcreated_at
p1566
VSat Nov 30 13:36:12 +0000 2013
p1567
sVin_reply_to_status_id_str
p1568
NsVplace
p1569
Nsa(dp1570
Vcontributors
p1571
NsVtruncated
p1572
I00
sVtext
p1573
V\u30d5\u30a9\u30ed\u30fc\u304c\u304d\u3073\u3057\u3044
p1574
sVin_reply_to_status_id
p1575
NsVid
p1576
L406778658091581441L
sVfavorite_count
p1577
I0
sVsource
p1578
Vweb
p1579
sVretweeted
p1580
I00
sVcoordinates
p1581
NsVentities
p1582
(dp1583
Vsymbols
p1584
(lp1585
sVuser_mentions
p1586
(lp1587
sVhashtags
p1588
(lp1589
sVurls
p1590
(lp1591
ssVin_reply_to_screen_name
p1592
NsVid_str
p1593
V406778658091581441
p1594
sVretweet_count
p1595
I0
sVin_reply_to_user_id
p1596
NsVfavorited
p1597
I00
sVuser
p1598
(dp1599
Vfollow_request_sent
p1600
I00
sVprofile_use_background_image
p1601
I01
sVdefault_profile_image
p1602
I01
sVid
p1603
L2223085266L
sVprofile_background_image_url_https
p1604
Vhttps://abs.twimg.com/images/themes/theme1/bg.png
p1605
sVverified
p1606
I00
sVprofile_text_color
p1607
V333333
p1608
sVprofile_image_url_https
p1609
Vhttps://abs.twimg.com/sticky/default_profile_images/default_profile_3_normal.png
p1610
sVprofile_sidebar_fill_color
p1611
VDDEEF6
p1612
sVentities
p1613
(dp1614
Vdescription
p1615
(dp1616
Vurls
p1617
(lp1618
sssVfollowers_count
p1619
I2
sVprofile_sidebar_border_color
p1620
VC0DEED
p1621
sVid_str
p1622
V2223085266
p1623
sVprofile_background_color
p1624
VC0DEED
p1625
sVlisted_count
p1626
I0
sVis_translation_enabled
p1627
I00
sVutc_offset
p1628
I32400
sVstatuses_count
p1629
I22
sVdescription
p1630
V\u5efa\u8a2d\u4e2d
p1631
sVfriends_count
p1632
I2
sVlocation
p1633
g65
sVprofile_link_color
p1634
V0084B4
p1635
sVprofile_image_url
p1636
Vhttp://abs.twimg.com/sticky/default_profile_images/default_profile_3_normal.png
p1637
sVfollowing
p1638
I01
sVgeo_enabled
p1639
I00
sVprofile_background_image_url
p1640
Vhttp://abs.twimg.com/images/themes/theme1/bg.png
p1641
sVscreen_name
p1642
Vkawa1125szk
p1643
sVlang
p1644
Vja
p1645
sVprofile_background_tile
p1646
I00
sVfavourites_count
p1647
I0
sVname
p1648
Vshir
p1649
sVnotifications
p1650
I00
sVurl
p1651
NsVcreated_at
p1652
VSat Nov 30 13:19:57 +0000 2013
p1653
sVcontributors_enabled
p1654
I00
sVtime_zone
p1655
VIrkutsk
p1656
sVprotected
p1657
I00
sVdefault_profile
p1658
I01
sVis_translator
p1659
I00
ssVgeo
p1660
NsVin_reply_to_user_id_str
p1661
NsVlang
p1662
Vja
p1663
sVcreated_at
p1664
VSat Nov 30 13:36:04 +0000 2013
p1665
sVin_reply_to_status_id_str
p1666
NsVplace
p1667
Nsa(dp1668
Vcontributors
p1669
NsVtruncated
p1670
I00
sVtext
p1671
V\u304d\u3073\u3057\u3044\u306a\u30fc
p1672
sVin_reply_to_status_id
p1673
NsVid
p1674
L406777851434651649L
sVfavorite_count
p1675
I0
sVsource
p1676
Vweb
p1677
sVretweeted
p1678
I00
sVcoordinates
p1679
NsVentities
p1680
(dp1681
Vsymbols
p1682
(lp1683
sVuser_mentions
p1684
(lp1685
sVhashtags
p1686
(lp1687
sVurls
p1688
(lp1689
ssVin_reply_to_screen_name
p1690
NsVid_str
p1691
V406777851434651649
p1692
sVretweet_count
p1693
I0
sVin_reply_to_user_id
p1694
NsVfavorited
p1695
I00
sVuser
p1696
(dp1697
Vfollow_request_sent
p1698
I00
sVprofile_use_background_image
p1699
I01
sVdefault_profile_image
p1700
I01
sVid
p1701
L2223085266L
sVprofile_background_image_url_https
p1702
Vhttps://abs.twimg.com/images/themes/theme1/bg.png
p1703
sVverified
p1704
I00
sVprofile_text_color
p1705
V333333
p1706
sVprofile_image_url_https
p1707
Vhttps://abs.twimg.com/sticky/default_profile_images/default_profile_3_normal.png
p1708
sVprofile_sidebar_fill_color
p1709
VDDEEF6
p1710
sVentities
p1711
(dp1712
Vdescription
p1713
(dp1714
Vurls
p1715
(lp1716
sssVfollowers_count
p1717
I2
sVprofile_sidebar_border_color
p1718
VC0DEED
p1719
sVid_str
p1720
V2223085266
p1721
sVprofile_background_color
p1722
VC0DEED
p1723
sVlisted_count
p1724
I0
sVis_translation_enabled
p1725
I00
sVutc_offset
p1726
I32400
sVstatuses_count
p1727
I22
sVdescription
p1728
V\u5efa\u8a2d\u4e2d
p1729
sVfriends_count
p1730
I2
sVlocation
p1731
g65
sVprofile_link_color
p1732
V0084B4
p1733
sVprofile_image_url
p1734
Vhttp://abs.twimg.com/sticky/default_profile_images/default_profile_3_normal.png
p1735
sVfollowing
p1736
I01
sVgeo_enabled
p1737
I00
sVprofile_background_image_url
p1738
Vhttp://abs.twimg.com/images/themes/theme1/bg.png
p1739
sVscreen_name
p1740
Vkawa1125szk
p1741
sVlang
p1742
Vja
p1743
sVprofile_background_tile
p1744
I00
sVfavourites_count
p1745
I0
sVname
p1746
Vshir
p1747
sVnotifications
p1748
I00
sVurl
p1749
NsVcreated_at
p1750
VSat Nov 30 13:19:57 +0000 2013
p1751
sVcontributors_enabled
p1752
I00
sVtime_zone
p1753
VIrkutsk
p1754
sVprotected
p1755
I00
sVdefault_profile
p1756
I01
sVis_translator
p1757
I00
ssVgeo
p1758
NsVin_reply_to_user_id_str
p1759
NsVlang
p1760
Vja
p1761
sVcreated_at
p1762
VSat Nov 30 13:32:52 +0000 2013
p1763
sVin_reply_to_status_id_str
p1764
NsVplace
p1765
Nsa(dp1766
Vcontributors
p1767
NsVtruncated
p1768
I00
sVtext
p1769
V\u3042\u3070\u3070\u3070\u3070
p1770
sVin_reply_to_status_id
p1771
NsVid
p1772
L406777676372779008L
sVfavorite_count
p1773
I0
sVsource
p1774
Vweb
p1775
sVretweeted
p1776
I00
sVcoordinates
p1777
NsVentities
p1778
(dp1779
Vsymbols
p1780
(lp1781
sVuser_mentions
p1782
(lp1783
sVhashtags
p1784
(lp1785
sVurls
p1786
(lp1787
ssVin_reply_to_screen_name
p1788
NsVid_str
p1789
V406777676372779008
p1790
sVretweet_count
p1791
I0
sVin_reply_to_user_id
p1792
NsVfavorited
p1793
I00
sVuser
p1794
(dp1795
Vfollow_request_sent
p1796
I00
sVprofile_use_background_image
p1797
I01
sVdefault_profile_image
p1798
I01
sVid
p1799
L2223085266L
sVprofile_background_image_url_https
p1800
Vhttps://abs.twimg.com/images/themes/theme1/bg.png
p1801
sVverified
p1802
I00
sVprofile_text_color
p1803
V333333
p1804
sVprofile_image_url_https
p1805
Vhttps://abs.twimg.com/sticky/default_profile_images/default_profile_3_normal.png
p1806
sVprofile_sidebar_fill_color
p1807
VDDEEF6
p1808
sVentities
p1809
(dp1810
Vdescription
p1811
(dp1812
Vurls
p1813
(lp1814
sssVfollowers_count
p1815
I2
sVprofile_sidebar_border_color
p1816
VC0DEED
p1817
sVid_str
p1818
V2223085266
p1819
sVprofile_background_color
p1820
VC0DEED
p1821
sVlisted_count
p1822
I0
sVis_translation_enabled
p1823
I00
sVutc_offset
p1824
I32400
sVstatuses_count
p1825
I22
sVdescription
p1826
V\u5efa\u8a2d\u4e2d
p1827
sVfriends_count
p1828
I2
sVlocation
p1829
g65
sVprofile_link_color
p1830
V0084B4
p1831
sVprofile_image_url
p1832
Vhttp://abs.twimg.com/sticky/default_profile_images/default_profile_3_normal.png
p1833
sVfollowing
p1834
I01
sVgeo_enabled
p1835
I00
sVprofile_background_image_url
p1836
Vhttp://abs.twimg.com/images/themes/theme1/bg.png
p1837
sVscreen_name
p1838
Vkawa1125szk
p1839
sVlang
p1840
Vja
p1841
sVprofile_background_tile
p1842
I00
sVfavourites_count
p1843
I0
sVname
p1844
Vshir
p1845
sVnotifications
p1846
I00
sVurl
p1847
NsVcreated_at
p1848
VSat Nov 30 13:19:57 +0000 2013
p1849
sVcontributors_enabled
p1850
I00
sVtime_zone
p1851
VIrkutsk
p1852
sVprotected
p1853
I00
sVdefault_profile
p1854
I01
sVis_translator
p1855
I00
ssVgeo
p1856
NsVin_reply_to_user_id_str
p1857
NsVlang
p1858
Vja
p1859
sVcreated_at
p1860
VSat Nov 30 13:32:10 +0000 2013
p1861
sVin_reply_to_status_id_str
p1862
NsVplace
p1863
Nsa(dp1864
Vcontributors
p1865
NsVtruncated
p1866
I00
sVtext
p1867
V\u5c31\u8077\u3068\u306f\u4e00\u4f53
p1868
sVin_reply_to_status_id
p1869
NsVid
p1870
L406776164800147456L
sVfavorite_count
p1871
I0
sVsource
p1872
Vweb
p1873
sVretweeted
p1874
I00
sVcoordinates
p1875
NsVentities
p1876
(dp1877
Vsymbols
p1878
(lp1879
sVuser_mentions
p1880
(lp1881
sVhashtags
p1882
(lp1883
sVurls
p1884
(lp1885
ssVin_reply_to_screen_name
p1886
NsVid_str
p1887
V406776164800147456
p1888
sVretweet_count
p1889
I0
sVin_reply_to_user_id
p1890
NsVfavorited
p1891
I00
sVuser
p1892
(dp1893
Vfollow_request_sent
p1894
I00
sVprofile_use_background_image
p1895
I01
sVdefault_profile_image
p1896
I01
sVid
p1897
L2223085266L
sVprofile_background_image_url_https
p1898
Vhttps://abs.twimg.com/images/themes/theme1/bg.png
p1899
sVverified
p1900
I00
sVprofile_text_color
p1901
V333333
p1902
sVprofile_image_url_https
p1903
Vhttps://abs.twimg.com/sticky/default_profile_images/default_profile_3_normal.png
p1904
sVprofile_sidebar_fill_color
p1905
VDDEEF6
p1906
sVentities
p1907
(dp1908
Vdescription
p1909
(dp1910
Vurls
p1911
(lp1912
sssVfollowers_count
p1913
I2
sVprofile_sidebar_border_color
p1914
VC0DEED
p1915
sVid_str
p1916
V2223085266
p1917
sVprofile_background_color
p1918
VC0DEED
p1919
sVlisted_count
p1920
I0
sVis_translation_enabled
p1921
I00
sVutc_offset
p1922
I32400
sVstatuses_count
p1923
I22
sVdescription
p1924
V\u5efa\u8a2d\u4e2d
p1925
sVfriends_count
p1926
I2
sVlocation
p1927
g65
sVprofile_link_color
p1928
V0084B4
p1929
sVprofile_image_url
p1930
Vhttp://abs.twimg.com/sticky/default_profile_images/default_profile_3_normal.png
p1931
sVfollowing
p1932
I01
sVgeo_enabled
p1933
I00
sVprofile_background_image_url
p1934
Vhttp://abs.twimg.com/images/themes/theme1/bg.png
p1935
sVscreen_name
p1936
Vkawa1125szk
p1937
sVlang
p1938
Vja
p1939
sVprofile_background_tile
p1940
I00
sVfavourites_count
p1941
I0
sVname
p1942
Vshir
p1943
sVnotifications
p1944
I00
sVurl
p1945
NsVcreated_at
p1946
VSat Nov 30 13:19:57 +0000 2013
p1947
sVcontributors_enabled
p1948
I00
sVtime_zone
p1949
VIrkutsk
p1950
sVprotected
p1951
I00
sVdefault_profile
p1952
I01
sVis_translator
p1953
I00
ssVgeo
p1954
NsVin_reply_to_user_id_str
p1955
NsVlang
p1956
Vja
p1957
sVcreated_at
p1958
VSat Nov 30 13:26:09 +0000 2013
p1959
sVin_reply_to_status_id_str
p1960
NsVplace
p1961
Nsa.