(lp0
(dp1
Vcontributors
p2
NsVtruncated
p3
I00
sVtext
p4
V( \u141b\U0001f450)\uff8a\uff9f\uff67
p5
sVin_reply_to_status_id
p6
NsVid
p7
L451319604007038976L
sVfavorite_count
p8
I0
sVsource
p9
Vweb
p10
sVretweeted
p11
I00
sVcoordinates
p12
NsVentities
p13
(dp14
Vsymbols
p15
(lp16
sVuser_mentions
p17
(lp18
sVhashtags
p19
(lp20
sVurls
p21
(lp22
ssVin_reply_to_screen_name
p23
NsVid_str
p24
V451319604007038976
p25
sVretweet_count
p26
I0
sVin_reply_to_user_id
p27
NsVfavorited
p28
I00
sVuser
p29
(dp30
Vfollow_request_sent
p31
I00
sVprofile_use_background_image
p32
I01
sVdefault_profile_image
p33
I00
sVid
p34
I87714006
sVprofile_background_image_url_https
p35
Vhttps://abs.twimg.com/images/themes/theme1/bg.png
p36
sVverified
p37
I00
sVprofile_text_color
p38
V333333
p39
sVprofile_image_url_https
p40
Vhttps://pbs.twimg.com/profile_images/378800000223203243/a38b3dda1ad958d9d2fe708acfe64969_normal.png
p41
sVprofile_sidebar_fill_color
p42
VDDEEF6
p43
sVentities
p44
(dp45
Vdescription
p46
(dp47
Vurls
p48
(lp49
sssVfollowers_count
p50
I118
sVprofile_sidebar_border_color
p51
VC0DEED
p52
sVid_str
p53
V87714006
p54
sVprofile_background_color
p55
VC0DEED
p56
sVlisted_count
p57
I1
sVis_translation_enabled
p58
I00
sVutc_offset
p59
I-36000
sVstatuses_count
p60
I1679
sVdescription
p61
V\u307e\u3053\u3068\u306b\u3082\u3046\u3057\u308f\u3051\u3042\u308a\u307e\u305b\u3093\u304c\u3001\u3042\u306a\u305f\u306e\u305f\u3081\u306b\u306a\u308b\u3058\u3087\u3046\u307b\u3046\u306f\u3053\u308c\u3063\u307d\u3063\u3061\u3082\u3064\u3076\u3084\u304d\u307e\u305b\u3093\u3002('A`)
p62
sVfriends_count
p63
I354
sVlocation
p64
V\u725b\u305f\u3093\u770c
p65
sVprofile_link_color
p66
V0084B4
p67
sVprofile_image_url
p68
Vhttp://pbs.twimg.com/profile_images/378800000223203243/a38b3dda1ad958d9d2fe708acfe64969_normal.png
p69
sVfollowing
p70
I01
sVgeo_enabled
p71
I00
sVprofile_background_image_url
p72
Vhttp://abs.twimg.com/images/themes/theme1/bg.png
p73
sVscreen_name
p74
Vkawa1125tp
p75
sVlang
p76
Ven-gb
p77
sVprofile_background_tile
p78
I00
sVfavourites_count
p79
I587
sVname
p80
VShir
p81
sVnotifications
p82
I00
sVurl
p83
NsVcreated_at
p84
VThu Nov 05 15:38:26 +0000 2009
p85
sVcontributors_enabled
p86
I00
sVtime_zone
p87
VHawaii
p88
sVprotected
p89
I00
sVdefault_profile
p90
I01
sVis_translator
p91
I00
ssVgeo
p92
NsVin_reply_to_user_id_str
p93
NsVlang
p94
Vja
p95
sVcreated_at
p96
VWed Apr 02 11:25:53 +0000 2014
p97
sVin_reply_to_status_id_str
p98
NsVplace
p99
Nsa(dp100
Vcontributors
p101
NsVtruncated
p102
I00
sVtext
p103
V\u306a\u3093\u3060\u304b\u306a\uff0e Bitcoin\u306f\u8a08\u7b97\u91cf\u7406\u8ad6\u304b\u3089\u898b\u3066\u300c\u7121\u9650\u9023\u9396\u8b1b\u300d\u3067\u3042\u308b http://t.co/D1x5FxaLoM via @nikkeibpITpro
p104
sVin_reply_to_status_id
p105
NsVid
p106
L451277863879053314L
sVfavorite_count
p107
I0
sVsource
p108
V<a href="http://twitter.com/tweetbutton" rel="nofollow">Tweet Button</a>
p109
sVretweeted
p110
I00
sVcoordinates
p111
NsVentities
p112
(dp113
Vsymbols
p114
(lp115
sVuser_mentions
p116
(lp117
(dp118
Vid
p119
I59390872
sVindices
p120
(lp121
I62
aI76
asVid_str
p122
V59390872
p123
sVscreen_name
p124
VnikkeibpITpro
p125
sVname
p126
VNikkei BP ITpro
p127
sasVhashtags
p128
(lp129
sVurls
p130
(lp131
(dp132
Vurl
p133
Vhttp://t.co/D1x5FxaLoM
p134
sVindices
p135
(lp136
I35
aI57
asVexpanded_url
p137
Vhttp://itpro.nikkeibp.co.jp/article/COLUMN/20140314/543783/
p138
sVdisplay_url
p139
Vitpro.nikkeibp.co.jp/article/COLUMN\u2026
p140
sassVin_reply_to_screen_name
p141
NsVid_str
p142
V451277863879053314
p143
sVretweet_count
p144
I0
sVin_reply_to_user_id
p145
NsVfavorited
p146
I00
sVuser
p147
(dp148
Vfollow_request_sent
p149
I00
sVprofile_use_background_image
p150
I01
sVdefault_profile_image
p151
I00
sVid
p152
I87714006
sVprofile_background_image_url_https
p153
Vhttps://abs.twimg.com/images/themes/theme1/bg.png
p154
sVverified
p155
I00
sVprofile_text_color
p156
V333333
p157
sVprofile_image_url_https
p158
Vhttps://pbs.twimg.com/profile_images/378800000223203243/a38b3dda1ad958d9d2fe708acfe64969_normal.png
p159
sVprofile_sidebar_fill_color
p160
VDDEEF6
p161
sVentities
p162
(dp163
Vdescription
p164
(dp165
Vurls
p166
(lp167
sssVfollowers_count
p168
I118
sVprofile_sidebar_border_color
p169
VC0DEED
p170
sVid_str
p171
V87714006
p172
sVprofile_background_color
p173
VC0DEED
p174
sVlisted_count
p175
I1
sVis_translation_enabled
p176
I00
sVutc_offset
p177
I-36000
sVstatuses_count
p178
I1679
sVdescription
p179
V\u307e\u3053\u3068\u306b\u3082\u3046\u3057\u308f\u3051\u3042\u308a\u307e\u305b\u3093\u304c\u3001\u3042\u306a\u305f\u306e\u305f\u3081\u306b\u306a\u308b\u3058\u3087\u3046\u307b\u3046\u306f\u3053\u308c\u3063\u307d\u3063\u3061\u3082\u3064\u3076\u3084\u304d\u307e\u305b\u3093\u3002('A`)
p180
sVfriends_count
p181
I354
sVlocation
p182
V\u725b\u305f\u3093\u770c
p183
sVprofile_link_color
p184
V0084B4
p185
sVprofile_image_url
p186
Vhttp://pbs.twimg.com/profile_images/378800000223203243/a38b3dda1ad958d9d2fe708acfe64969_normal.png
p187
sVfollowing
p188
I01
sVgeo_enabled
p189
I00
sVprofile_background_image_url
p190
Vhttp://abs.twimg.com/images/themes/theme1/bg.png
p191
sVscreen_name
p192
Vkawa1125tp
p193
sVlang
p194
Ven-gb
p195
sVprofile_background_tile
p196
I00
sVfavourites_count
p197
I587
sVname
p198
VShir
p199
sVnotifications
p200
I00
sVurl
p201
NsVcreated_at
p202
VThu Nov 05 15:38:26 +0000 2009
p203
sVcontributors_enabled
p204
I00
sVtime_zone
p205
VHawaii
p206
sVprotected
p207
I00
sVdefault_profile
p208
I01
sVis_translator
p209
I00
ssVgeo
p210
NsVin_reply_to_user_id_str
p211
NsVpossibly_sensitive
p212
I00
sVlang
p213
Vja
p214
sVcreated_at
p215
VWed Apr 02 08:40:01 +0000 2014
p216
sVin_reply_to_status_id_str
p217
NsVplace
p218
Nsa(dp219
Vcontributors
p220
NsVtruncated
p221
I00
sVtext
p222
V\u3048\u308c\u3074\u3087\u3093\u3069\u3053\u884c\u3063\u3066\u3057\u307e\u3063\u305f\u3093\uff1f
p223
sVin_reply_to_status_id
p224
NsVid
p225
L450993994189660160L
sVfavorite_count
p226
I0
sVsource
p227
Vweb
p228
sVretweeted
p229
I00
sVcoordinates
p230
NsVentities
p231
(dp232
Vsymbols
p233
(lp234
sVuser_mentions
p235
(lp236
sVhashtags
p237
(lp238
sVurls
p239
(lp240
ssVin_reply_to_screen_name
p241
NsVid_str
p242
V450993994189660160
p243
sVretweet_count
p244
I0
sVin_reply_to_user_id
p245
NsVfavorited
p246
I00
sVuser
p247
(dp248
Vfollow_request_sent
p249
I00
sVprofile_use_background_image
p250
I01
sVdefault_profile_image
p251
I00
sVid
p252
I87714006
sVprofile_background_image_url_https
p253
Vhttps://abs.twimg.com/images/themes/theme1/bg.png
p254
sVverified
p255
I00
sVprofile_text_color
p256
V333333
p257
sVprofile_image_url_https
p258
Vhttps://pbs.twimg.com/profile_images/378800000223203243/a38b3dda1ad958d9d2fe708acfe64969_normal.png
p259
sVprofile_sidebar_fill_color
p260
VDDEEF6
p261
sVentities
p262
(dp263
Vdescription
p264
(dp265
Vurls
p266
(lp267
sssVfollowers_count
p268
I118
sVprofile_sidebar_border_color
p269
VC0DEED
p270
sVid_str
p271
V87714006
p272
sVprofile_background_color
p273
VC0DEED
p274
sVlisted_count
p275
I1
sVis_translation_enabled
p276
I00
sVutc_offset
p277
I-36000
sVstatuses_count
p278
I1679
sVdescription
p279
V\u307e\u3053\u3068\u306b\u3082\u3046\u3057\u308f\u3051\u3042\u308a\u307e\u305b\u3093\u304c\u3001\u3042\u306a\u305f\u306e\u305f\u3081\u306b\u306a\u308b\u3058\u3087\u3046\u307b\u3046\u306f\u3053\u308c\u3063\u307d\u3063\u3061\u3082\u3064\u3076\u3084\u304d\u307e\u305b\u3093\u3002('A`)
p280
sVfriends_count
p281
I354
sVlocation
p282
V\u725b\u305f\u3093\u770c
p283
sVprofile_link_color
p284
V0084B4
p285
sVprofile_image_url
p286
Vhttp://pbs.twimg.com/profile_images/378800000223203243/a38b3dda1ad958d9d2fe708acfe64969_normal.png
p287
sVfollowing
p288
I01
sVgeo_enabled
p289
I00
sVprofile_background_image_url
p290
Vhttp://abs.twimg.com/images/themes/theme1/bg.png
p291
sVscreen_name
p292
Vkawa1125tp
p293
sVlang
p294
Ven-gb
p295
sVprofile_background_tile
p296
I00
sVfavourites_count
p297
I587
sVname
p298
VShir
p299
sVnotifications
p300
I00
sVurl
p301
NsVcreated_at
p302
VThu Nov 05 15:38:26 +0000 2009
p303
sVcontributors_enabled
p304
I00
sVtime_zone
p305
VHawaii
p306
sVprotected
p307
I00
sVdefault_profile
p308
I01
sVis_translator
p309
I00
ssVgeo
p310
NsVin_reply_to_user_id_str
p311
NsVlang
p312
Vja
p313
sVcreated_at
p314
VTue Apr 01 13:52:01 +0000 2014
p315
sVin_reply_to_status_id_str
p316
NsVplace
p317
Nsa(dp318
Vcontributors
p319
NsVtruncated
p320
I00
sVtext
p321
V\u9762\u63a5\u3067\u7b46\u8a18\u8a66\u9a13\u304c\u3042\u308b\u3089\u3057\u3044\u3051\u3069\uff0c\u3069\u3053\u3089\u3078\u3093\u3092\u52c9\u5f37\u3057\u3066\u81e8\u3081\u3070\u3044\u3044\u306e\u3067\u3057\u3087\u3046\u304b\uff1f
p322
sVin_reply_to_status_id
p323
NsVid
p324
L450916441697427456L
sVfavorite_count
p325
I0
sVsource
p326
Vweb
p327
sVretweeted
p328
I00
sVcoordinates
p329
NsVentities
p330
(dp331
Vsymbols
p332
(lp333
sVuser_mentions
p334
(lp335
sVhashtags
p336
(lp337
sVurls
p338
(lp339
ssVin_reply_to_screen_name
p340
NsVid_str
p341
V450916441697427456
p342
sVretweet_count
p343
I0
sVin_reply_to_user_id
p344
NsVfavorited
p345
I00
sVuser
p346
(dp347
Vfollow_request_sent
p348
I00
sVprofile_use_background_image
p349
I01
sVdefault_profile_image
p350
I00
sVid
p351
I87714006
sVprofile_background_image_url_https
p352
Vhttps://abs.twimg.com/images/themes/theme1/bg.png
p353
sVverified
p354
I00
sVprofile_text_color
p355
V333333
p356
sVprofile_image_url_https
p357
Vhttps://pbs.twimg.com/profile_images/378800000223203243/a38b3dda1ad958d9d2fe708acfe64969_normal.png
p358
sVprofile_sidebar_fill_color
p359
VDDEEF6
p360
sVentities
p361
(dp362
Vdescription
p363
(dp364
Vurls
p365
(lp366
sssVfollowers_count
p367
I118
sVprofile_sidebar_border_color
p368
VC0DEED
p369
sVid_str
p370
V87714006
p371
sVprofile_background_color
p372
VC0DEED
p373
sVlisted_count
p374
I1
sVis_translation_enabled
p375
I00
sVutc_offset
p376
I-36000
sVstatuses_count
p377
I1679
sVdescription
p378
V\u307e\u3053\u3068\u306b\u3082\u3046\u3057\u308f\u3051\u3042\u308a\u307e\u305b\u3093\u304c\u3001\u3042\u306a\u305f\u306e\u305f\u3081\u306b\u306a\u308b\u3058\u3087\u3046\u307b\u3046\u306f\u3053\u308c\u3063\u307d\u3063\u3061\u3082\u3064\u3076\u3084\u304d\u307e\u305b\u3093\u3002('A`)
p379
sVfriends_count
p380
I354
sVlocation
p381
V\u725b\u305f\u3093\u770c
p382
sVprofile_link_color
p383
V0084B4
p384
sVprofile_image_url
p385
Vhttp://pbs.twimg.com/profile_images/378800000223203243/a38b3dda1ad958d9d2fe708acfe64969_normal.png
p386
sVfollowing
p387
I01
sVgeo_enabled
p388
I00
sVprofile_background_image_url
p389
Vhttp://abs.twimg.com/images/themes/theme1/bg.png
p390
sVscreen_name
p391
Vkawa1125tp
p392
sVlang
p393
Ven-gb
p394
sVprofile_background_tile
p395
I00
sVfavourites_count
p396
I587
sVname
p397
VShir
p398
sVnotifications
p399
I00
sVurl
p400
NsVcreated_at
p401
VThu Nov 05 15:38:26 +0000 2009
p402
sVcontributors_enabled
p403
I00
sVtime_zone
p404
VHawaii
p405
sVprotected
p406
I00
sVdefault_profile
p407
I01
sVis_translator
p408
I00
ssVgeo
p409
NsVin_reply_to_user_id_str
p410
NsVlang
p411
Vja
p412
sVcreated_at
p413
VTue Apr 01 08:43:51 +0000 2014
p414
sVin_reply_to_status_id_str
p415
NsVplace
p416
Nsa(dp417
Vcontributors
p418
NsVtruncated
p419
I00
sVtext
p420
V\u3068\u304b\u8a00\u3063\u3066\u307f\u305f\u308a\u306a\u3093\u304b\u3057\u305f\u308a\u3057\u3066\u3002
p421
sVin_reply_to_status_id
p422
NsVid
p423
L450646479909048320L
sVfavorite_count
p424
I0
sVsource
p425
Vweb
p426
sVretweeted
p427
I00
sVcoordinates
p428
NsVentities
p429
(dp430
Vsymbols
p431
(lp432
sVuser_mentions
p433
(lp434
sVhashtags
p435
(lp436
sVurls
p437
(lp438
ssVin_reply_to_screen_name
p439
NsVid_str
p440
V450646479909048320
p441
sVretweet_count
p442
I0
sVin_reply_to_user_id
p443
NsVfavorited
p444
I00
sVuser
p445
(dp446
Vfollow_request_sent
p447
I00
sVprofile_use_background_image
p448
I01
sVdefault_profile_image
p449
I00
sVid
p450
I87714006
sVprofile_background_image_url_https
p451
Vhttps://abs.twimg.com/images/themes/theme1/bg.png
p452
sVverified
p453
I00
sVprofile_text_color
p454
V333333
p455
sVprofile_image_url_https
p456
Vhttps://pbs.twimg.com/profile_images/378800000223203243/a38b3dda1ad958d9d2fe708acfe64969_normal.png
p457
sVprofile_sidebar_fill_color
p458
VDDEEF6
p459
sVentities
p460
(dp461
Vdescription
p462
(dp463
Vurls
p464
(lp465
sssVfollowers_count
p466
I118
sVprofile_sidebar_border_color
p467
VC0DEED
p468
sVid_str
p469
V87714006
p470
sVprofile_background_color
p471
VC0DEED
p472
sVlisted_count
p473
I1
sVis_translation_enabled
p474
I00
sVutc_offset
p475
I-36000
sVstatuses_count
p476
I1679
sVdescription
p477
V\u307e\u3053\u3068\u306b\u3082\u3046\u3057\u308f\u3051\u3042\u308a\u307e\u305b\u3093\u304c\u3001\u3042\u306a\u305f\u306e\u305f\u3081\u306b\u306a\u308b\u3058\u3087\u3046\u307b\u3046\u306f\u3053\u308c\u3063\u307d\u3063\u3061\u3082\u3064\u3076\u3084\u304d\u307e\u305b\u3093\u3002('A`)
p478
sVfriends_count
p479
I354
sVlocation
p480
V\u725b\u305f\u3093\u770c
p481
sVprofile_link_color
p482
V0084B4
p483
sVprofile_image_url
p484
Vhttp://pbs.twimg.com/profile_images/378800000223203243/a38b3dda1ad958d9d2fe708acfe64969_normal.png
p485
sVfollowing
p486
I01
sVgeo_enabled
p487
I00
sVprofile_background_image_url
p488
Vhttp://abs.twimg.com/images/themes/theme1/bg.png
p489
sVscreen_name
p490
Vkawa1125tp
p491
sVlang
p492
Ven-gb
p493
sVprofile_background_tile
p494
I00
sVfavourites_count
p495
I587
sVname
p496
VShir
p497
sVnotifications
p498
I00
sVurl
p499
NsVcreated_at
p500
VThu Nov 05 15:38:26 +0000 2009
p501
sVcontributors_enabled
p502
I00
sVtime_zone
p503
VHawaii
p504
sVprotected
p505
I00
sVdefault_profile
p506
I01
sVis_translator
p507
I00
ssVgeo
p508
NsVin_reply_to_user_id_str
p509
NsVlang
p510
Vja
p511
sVcreated_at
p512
VMon Mar 31 14:51:08 +0000 2014
p513
sVin_reply_to_status_id_str
p514
NsVplace
p515
Nsa(dp516
Vcontributors
p517
NsVtruncated
p518
I00
sVtext
p519
V\u666e\u6bb5\u306f\u706b\u6728\u4f11\u307f\u306e\u79d8\u66f8\u3055\u3093\u3082\u660e\u65e5\u51fa\u52e4\u3059\u308b\u3089\u3057\u3044\u3057\u30014\u67081\u65e5\u3068\u3044\u3046\u7bc0\u76ee\u306e\u826f\u3055\u3082\u76f8\u307e\u3063\u3066\u3001\u65b0\u52a9\u6559\u8972\u6765\u306e\u4e88\u611f\u304c\u3077\u3093\u3077\u3093\u3057\u307e\u3059\u3002
p520
sVin_reply_to_status_id
p521
NsVid
p522
L450646355023626241L
sVfavorite_count
p523
I0
sVsource
p524
Vweb
p525
sVretweeted
p526
I00
sVcoordinates
p527
NsVentities
p528
(dp529
Vsymbols
p530
(lp531
sVuser_mentions
p532
(lp533
sVhashtags
p534
(lp535
sVurls
p536
(lp537
ssVin_reply_to_screen_name
p538
NsVid_str
p539
V450646355023626241
p540
sVretweet_count
p541
I0
sVin_reply_to_user_id
p542
NsVfavorited
p543
I00
sVuser
p544
(dp545
Vfollow_request_sent
p546
I00
sVprofile_use_background_image
p547
I01
sVdefault_profile_image
p548
I00
sVid
p549
I87714006
sVprofile_background_image_url_https
p550
Vhttps://abs.twimg.com/images/themes/theme1/bg.png
p551
sVverified
p552
I00
sVprofile_text_color
p553
V333333
p554
sVprofile_image_url_https
p555
Vhttps://pbs.twimg.com/profile_images/378800000223203243/a38b3dda1ad958d9d2fe708acfe64969_normal.png
p556
sVprofile_sidebar_fill_color
p557
VDDEEF6
p558
sVentities
p559
(dp560
Vdescription
p561
(dp562
Vurls
p563
(lp564
sssVfollowers_count
p565
I118
sVprofile_sidebar_border_color
p566
VC0DEED
p567
sVid_str
p568
V87714006
p569
sVprofile_background_color
p570
VC0DEED
p571
sVlisted_count
p572
I1
sVis_translation_enabled
p573
I00
sVutc_offset
p574
I-36000
sVstatuses_count
p575
I1679
sVdescription
p576
V\u307e\u3053\u3068\u306b\u3082\u3046\u3057\u308f\u3051\u3042\u308a\u307e\u305b\u3093\u304c\u3001\u3042\u306a\u305f\u306e\u305f\u3081\u306b\u306a\u308b\u3058\u3087\u3046\u307b\u3046\u306f\u3053\u308c\u3063\u307d\u3063\u3061\u3082\u3064\u3076\u3084\u304d\u307e\u305b\u3093\u3002('A`)
p577
sVfriends_count
p578
I354
sVlocation
p579
V\u725b\u305f\u3093\u770c
p580
sVprofile_link_color
p581
V0084B4
p582
sVprofile_image_url
p583
Vhttp://pbs.twimg.com/profile_images/378800000223203243/a38b3dda1ad958d9d2fe708acfe64969_normal.png
p584
sVfollowing
p585
I01
sVgeo_enabled
p586
I00
sVprofile_background_image_url
p587
Vhttp://abs.twimg.com/images/themes/theme1/bg.png
p588
sVscreen_name
p589
Vkawa1125tp
p590
sVlang
p591
Ven-gb
p592
sVprofile_background_tile
p593
I00
sVfavourites_count
p594
I587
sVname
p595
VShir
p596
sVnotifications
p597
I00
sVurl
p598
NsVcreated_at
p599
VThu Nov 05 15:38:26 +0000 2009
p600
sVcontributors_enabled
p601
I00
sVtime_zone
p602
VHawaii
p603
sVprotected
p604
I00
sVdefault_profile
p605
I01
sVis_translator
p606
I00
ssVgeo
p607
NsVin_reply_to_user_id_str
p608
NsVlang
p609
Vja
p610
sVcreated_at
p611
VMon Mar 31 14:50:38 +0000 2014
p612
sVin_reply_to_status_id_str
p613
NsVplace
p614
Nsa(dp615
Vcontributors
p616
NsVtruncated
p617
I00
sVtext
p618
V#\u30ab\u30e1\u30ea\u30aa http://t.co/5fhxlkpKX4 \u304cShir\u3055\u3093\u306e\u30ef\u30fc\u30c9\u30af\u30e9\u30a6\u30c9\u3092\u3064\u304f\u308a\u307e\u3057\u305f\u3002\u3042\u306a\u305f\u3082\u3053\u3053http://t.co/B8eyHfK2Ql\u3067\u4f5c\u3063\u3066\u307f\u307e\u305b\u3093\u304b\uff1f http://t.co/Ci71tde33E
p619
sVin_reply_to_status_id
p620
NsVid
p621
L449779765948317696L
sVfavorite_count
p622
I0
sVsource
p623
V<a href="http://shirokumo.kamel.io" rel="nofollow">\u30b7\u30ed\u304f\u3082 powered by \u30ab\u30e1\u30ea\u30aa3</a>
p624
sVretweeted
p625
I00
sVcoordinates
p626
NsVentities
p627
(dp628
Vsymbols
p629
(lp630
sVuser_mentions
p631
(lp632
sVhashtags
p633
(lp634
(dp635
Vindices
p636
(lp637
I0
aI5
asVtext
p638
V\u30ab\u30e1\u30ea\u30aa
p639
sasVurls
p640
(lp641
(dp642
Vurl
p643
Vhttp://t.co/5fhxlkpKX4
p644
sVindices
p645
(lp646
I6
aI28
asVexpanded_url
p647
Vhttp://kamel.io
p648
sVdisplay_url
p649
Vkamel.io
p650
sa(dp651
Vurl
p652
Vhttp://t.co/B8eyHfK2Ql
p653
sVindices
p654
(lp655
I58
aI80
asVexpanded_url
p656
Vhttp://shirokumo.kamel.io
p657
sVdisplay_url
p658
Vshirokumo.kamel.io
p659
sasVmedia
p660
(lp661
(dp662
Vexpanded_url
p663
Vhttp://twitter.com/kawa1125tp/status/449779765948317696/photo/1
p664
sVdisplay_url
p665
Vpic.twitter.com/Ci71tde33E
p666
sVurl
p667
Vhttp://t.co/Ci71tde33E
p668
sVmedia_url_https
p669
Vhttps://pbs.twimg.com/media/Bj3wUF-CcAAxt0C.png
p670
sVid_str
p671
V449779765797351424
p672
sVsizes
p673
(dp674
Vlarge
p675
(dp676
Vh
p677
I400
sVresize
p678
Vfit
p679
sVw
p680
I800
ssVsmall
p681
(dp682
g677
I170
sVresize
p683
Vfit
p684
sg680
I340
ssVmedium
p685
(dp686
g677
I300
sVresize
p687
Vfit
p688
sg680
I600
ssVthumb
p689
(dp690
g677
I150
sVresize
p691
Vcrop
p692
sg680
I150
sssVindices
p693
(lp694
I91
aI113
asVtype
p695
Vphoto
p696
sVid
p697
L449779765797351424L
sVmedia_url
p698
Vhttp://pbs.twimg.com/media/Bj3wUF-CcAAxt0C.png
p699
sassVin_reply_to_screen_name
p700
NsVid_str
p701
V449779765948317696
p702
sVretweet_count
p703
I0
sVin_reply_to_user_id
p704
NsVfavorited
p705
I00
sVuser
p706
(dp707
Vfollow_request_sent
p708
I00
sVprofile_use_background_image
p709
I01
sVdefault_profile_image
p710
I00
sVid
p711
I87714006
sVprofile_background_image_url_https
p712
Vhttps://abs.twimg.com/images/themes/theme1/bg.png
p713
sVverified
p714
I00
sVprofile_text_color
p715
V333333
p716
sVprofile_image_url_https
p717
Vhttps://pbs.twimg.com/profile_images/378800000223203243/a38b3dda1ad958d9d2fe708acfe64969_normal.png
p718
sVprofile_sidebar_fill_color
p719
VDDEEF6
p720
sVentities
p721
(dp722
Vdescription
p723
(dp724
Vurls
p725
(lp726
sssVfollowers_count
p727
I118
sVprofile_sidebar_border_color
p728
VC0DEED
p729
sVid_str
p730
V87714006
p731
sVprofile_background_color
p732
VC0DEED
p733
sVlisted_count
p734
I1
sVis_translation_enabled
p735
I00
sVutc_offset
p736
I-36000
sVstatuses_count
p737
I1679
sVdescription
p738
V\u307e\u3053\u3068\u306b\u3082\u3046\u3057\u308f\u3051\u3042\u308a\u307e\u305b\u3093\u304c\u3001\u3042\u306a\u305f\u306e\u305f\u3081\u306b\u306a\u308b\u3058\u3087\u3046\u307b\u3046\u306f\u3053\u308c\u3063\u307d\u3063\u3061\u3082\u3064\u3076\u3084\u304d\u307e\u305b\u3093\u3002('A`)
p739
sVfriends_count
p740
I354
sVlocation
p741
V\u725b\u305f\u3093\u770c
p742
sVprofile_link_color
p743
V0084B4
p744
sVprofile_image_url
p745
Vhttp://pbs.twimg.com/profile_images/378800000223203243/a38b3dda1ad958d9d2fe708acfe64969_normal.png
p746
sVfollowing
p747
I01
sVgeo_enabled
p748
I00
sVprofile_background_image_url
p749
Vhttp://abs.twimg.com/images/themes/theme1/bg.png
p750
sVscreen_name
p751
Vkawa1125tp
p752
sVlang
p753
Ven-gb
p754
sVprofile_background_tile
p755
I00
sVfavourites_count
p756
I587
sVname
p757
VShir
p758
sVnotifications
p759
I00
sVurl
p760
NsVcreated_at
p761
VThu Nov 05 15:38:26 +0000 2009
p762
sVcontributors_enabled
p763
I00
sVtime_zone
p764
VHawaii
p765
sVprotected
p766
I00
sVdefault_profile
p767
I01
sVis_translator
p768
I00
ssVgeo
p769
NsVin_reply_to_user_id_str
p770
NsVpossibly_sensitive
p771
I00
sVlang
p772
Vja
p773
sVcreated_at
p774
VSat Mar 29 05:27:07 +0000 2014
p775
sVin_reply_to_status_id_str
p776
NsVplace
p777
Nsa(dp778
Vcontributors
p779
NsVtruncated
p780
I00
sVtext
p781
V\u3061\u3087\u3063\u3068\u3088\u304f\u308f\u304b\u3089\u306a\u3044\u3002
p782
sVin_reply_to_status_id
p783
NsVid
p784
L449586704215572480L
sVfavorite_count
p785
I0
sVsource
p786
Vweb
p787
sVretweeted
p788
I00
sVcoordinates
p789
NsVentities
p790
(dp791
Vsymbols
p792
(lp793
sVuser_mentions
p794
(lp795
sVhashtags
p796
(lp797
sVurls
p798
(lp799
ssVin_reply_to_screen_name
p800
NsVid_str
p801
V449586704215572480
p802
sVretweet_count
p803
I0
sVin_reply_to_user_id
p804
NsVfavorited
p805
I00
sVuser
p806
(dp807
Vfollow_request_sent
p808
I00
sVprofile_use_background_image
p809
I01
sVdefault_profile_image
p810
I00
sVid
p811
I87714006
sVprofile_background_image_url_https
p812
Vhttps://abs.twimg.com/images/themes/theme1/bg.png
p813
sVverified
p814
I00
sVprofile_text_color
p815
V333333
p816
sVprofile_image_url_https
p817
Vhttps://pbs.twimg.com/profile_images/378800000223203243/a38b3dda1ad958d9d2fe708acfe64969_normal.png
p818
sVprofile_sidebar_fill_color
p819
VDDEEF6
p820
sVentities
p821
(dp822
Vdescription
p823
(dp824
Vurls
p825
(lp826
sssVfollowers_count
p827
I118
sVprofile_sidebar_border_color
p828
VC0DEED
p829
sVid_str
p830
V87714006
p831
sVprofile_background_color
p832
VC0DEED
p833
sVlisted_count
p834
I1
sVis_translation_enabled
p835
I00
sVutc_offset
p836
I-36000
sVstatuses_count
p837
I1679
sVdescription
p838
V\u307e\u3053\u3068\u306b\u3082\u3046\u3057\u308f\u3051\u3042\u308a\u307e\u305b\u3093\u304c\u3001\u3042\u306a\u305f\u306e\u305f\u3081\u306b\u306a\u308b\u3058\u3087\u3046\u307b\u3046\u306f\u3053\u308c\u3063\u307d\u3063\u3061\u3082\u3064\u3076\u3084\u304d\u307e\u305b\u3093\u3002('A`)
p839
sVfriends_count
p840
I354
sVlocation
p841
V\u725b\u305f\u3093\u770c
p842
sVprofile_link_color
p843
V0084B4
p844
sVprofile_image_url
p845
Vhttp://pbs.twimg.com/profile_images/378800000223203243/a38b3dda1ad958d9d2fe708acfe64969_normal.png
p846
sVfollowing
p847
I01
sVgeo_enabled
p848
I00
sVprofile_background_image_url
p849
Vhttp://abs.twimg.com/images/themes/theme1/bg.png
p850
sVscreen_name
p851
Vkawa1125tp
p852
sVlang
p853
Ven-gb
p854
sVprofile_background_tile
p855
I00
sVfavourites_count
p856
I587
sVname
p857
VShir
p858
sVnotifications
p859
I00
sVurl
p860
NsVcreated_at
p861
VThu Nov 05 15:38:26 +0000 2009
p862
sVcontributors_enabled
p863
I00
sVtime_zone
p864
VHawaii
p865
sVprotected
p866
I00
sVdefault_profile
p867
I01
sVis_translator
p868
I00
ssVgeo
p869
NsVin_reply_to_user_id_str
p870
NsVlang
p871
Vja
p872
sVcreated_at
p873
VFri Mar 28 16:39:57 +0000 2014
p874
sVin_reply_to_status_id_str
p875
NsVplace
p876
Nsa(dp877
Vcontributors
p878
NsVtruncated
p879
I00
sVtext
p880
V\u4e16\u754c\u6b74\u4ee3\u6700\u9ad8\u5f97\u70b9\u3068\u306f\u3002
p881
sVin_reply_to_status_id
p882
NsVid
p883
L449199235267702784L
sVfavorite_count
p884
I0
sVsource
p885
Vweb
p886
sVretweeted
p887
I00
sVcoordinates
p888
NsVentities
p889
(dp890
Vsymbols
p891
(lp892
sVuser_mentions
p893
(lp894
sVhashtags
p895
(lp896
sVurls
p897
(lp898
ssVin_reply_to_screen_name
p899
NsVid_str
p900
V449199235267702784
p901
sVretweet_count
p902
I0
sVin_reply_to_user_id
p903
NsVfavorited
p904
I00
sVuser
p905
(dp906
Vfollow_request_sent
p907
I00
sVprofile_use_background_image
p908
I01
sVdefault_profile_image
p909
I00
sVid
p910
I87714006
sVprofile_background_image_url_https
p911
Vhttps://abs.twimg.com/images/themes/theme1/bg.png
p912
sVverified
p913
I00
sVprofile_text_color
p914
V333333
p915
sVprofile_image_url_https
p916
Vhttps://pbs.twimg.com/profile_images/378800000223203243/a38b3dda1ad958d9d2fe708acfe64969_normal.png
p917
sVprofile_sidebar_fill_color
p918
VDDEEF6
p919
sVentities
p920
(dp921
Vdescription
p922
(dp923
Vurls
p924
(lp925
sssVfollowers_count
p926
I118
sVprofile_sidebar_border_color
p927
VC0DEED
p928
sVid_str
p929
V87714006
p930
sVprofile_background_color
p931
VC0DEED
p932
sVlisted_count
p933
I1
sVis_translation_enabled
p934
I00
sVutc_offset
p935
I-36000
sVstatuses_count
p936
I1679
sVdescription
p937
V\u307e\u3053\u3068\u306b\u3082\u3046\u3057\u308f\u3051\u3042\u308a\u307e\u305b\u3093\u304c\u3001\u3042\u306a\u305f\u306e\u305f\u3081\u306b\u306a\u308b\u3058\u3087\u3046\u307b\u3046\u306f\u3053\u308c\u3063\u307d\u3063\u3061\u3082\u3064\u3076\u3084\u304d\u307e\u305b\u3093\u3002('A`)
p938
sVfriends_count
p939
I354
sVlocation
p940
V\u725b\u305f\u3093\u770c
p941
sVprofile_link_color
p942
V0084B4
p943
sVprofile_image_url
p944
Vhttp://pbs.twimg.com/profile_images/378800000223203243/a38b3dda1ad958d9d2fe708acfe64969_normal.png
p945
sVfollowing
p946
I01
sVgeo_enabled
p947
I00
sVprofile_background_image_url
p948
Vhttp://abs.twimg.com/images/themes/theme1/bg.png
p949
sVscreen_name
p950
Vkawa1125tp
p951
sVlang
p952
Ven-gb
p953
sVprofile_background_tile
p954
I00
sVfavourites_count
p955
I587
sVname
p956
VShir
p957
sVnotifications
p958
I00
sVurl
p959
NsVcreated_at
p960
VThu Nov 05 15:38:26 +0000 2009
p961
sVcontributors_enabled
p962
I00
sVtime_zone
p963
VHawaii
p964
sVprotected
p965
I00
sVdefault_profile
p966
I01
sVis_translator
p967
I00
ssVgeo
p968
NsVin_reply_to_user_id_str
p969
NsVlang
p970
Vja
p971
sVcreated_at
p972
VThu Mar 27 15:00:18 +0000 2014
p973
sVin_reply_to_status_id_str
p974
NsVplace
p975
Nsa(dp976
Vcontributors
p977
NsVtruncated
p978
I00
sVtext
p979
V\u4e2d\u578b\u514d\u8a31\u304c\u307b\u3057\u3044\u3002\u305f\u3060\u3057\u91d1\u306f\u306a\u3044\u3002
p980
sVin_reply_to_status_id
p981
NsVid
p982
L448773907554652160L
sVfavorite_count
p983
I0
sVsource
p984
V<a href="http://twitter.com/download/android" rel="nofollow">Twitter for Android</a>
p985
sVretweeted
p986
I00
sVcoordinates
p987
NsVentities
p988
(dp989
Vsymbols
p990
(lp991
sVuser_mentions
p992
(lp993
sVhashtags
p994
(lp995
sVurls
p996
(lp997
ssVin_reply_to_screen_name
p998
NsVid_str
p999
V448773907554652160
p1000
sVretweet_count
p1001
I0
sVin_reply_to_user_id
p1002
NsVfavorited
p1003
I00
sVuser
p1004
(dp1005
Vfollow_request_sent
p1006
I00
sVprofile_use_background_image
p1007
I01
sVdefault_profile_image
p1008
I00
sVid
p1009
I87714006
sVprofile_background_image_url_https
p1010
Vhttps://abs.twimg.com/images/themes/theme1/bg.png
p1011
sVverified
p1012
I00
sVprofile_text_color
p1013
V333333
p1014
sVprofile_image_url_https
p1015
Vhttps://pbs.twimg.com/profile_images/378800000223203243/a38b3dda1ad958d9d2fe708acfe64969_normal.png
p1016
sVprofile_sidebar_fill_color
p1017
VDDEEF6
p1018
sVentities
p1019
(dp1020
Vdescription
p1021
(dp1022
Vurls
p1023
(lp1024
sssVfollowers_count
p1025
I118
sVprofile_sidebar_border_color
p1026
VC0DEED
p1027
sVid_str
p1028
V87714006
p1029
sVprofile_background_color
p1030
VC0DEED
p1031
sVlisted_count
p1032
I1
sVis_translation_enabled
p1033
I00
sVutc_offset
p1034
I-36000
sVstatuses_count
p1035
I1679
sVdescription
p1036
V\u307e\u3053\u3068\u306b\u3082\u3046\u3057\u308f\u3051\u3042\u308a\u307e\u305b\u3093\u304c\u3001\u3042\u306a\u305f\u306e\u305f\u3081\u306b\u306a\u308b\u3058\u3087\u3046\u307b\u3046\u306f\u3053\u308c\u3063\u307d\u3063\u3061\u3082\u3064\u3076\u3084\u304d\u307e\u305b\u3093\u3002('A`)
p1037
sVfriends_count
p1038
I354
sVlocation
p1039
V\u725b\u305f\u3093\u770c
p1040
sVprofile_link_color
p1041
V0084B4
p1042
sVprofile_image_url
p1043
Vhttp://pbs.twimg.com/profile_images/378800000223203243/a38b3dda1ad958d9d2fe708acfe64969_normal.png
p1044
sVfollowing
p1045
I01
sVgeo_enabled
p1046
I00
sVprofile_background_image_url
p1047
Vhttp://abs.twimg.com/images/themes/theme1/bg.png
p1048
sVscreen_name
p1049
Vkawa1125tp
p1050
sVlang
p1051
Ven-gb
p1052
sVprofile_background_tile
p1053
I00
sVfavourites_count
p1054
I587
sVname
p1055
VShir
p1056
sVnotifications
p1057
I00
sVurl
p1058
NsVcreated_at
p1059
VThu Nov 05 15:38:26 +0000 2009
p1060
sVcontributors_enabled
p1061
I00
sVtime_zone
p1062
VHawaii
p1063
sVprotected
p1064
I00
sVdefault_profile
p1065
I01
sVis_translator
p1066
I00
ssVgeo
p1067
NsVin_reply_to_user_id_str
p1068
NsVlang
p1069
Vja
p1070
sVcreated_at
p1071
VWed Mar 26 10:50:12 +0000 2014
p1072
sVin_reply_to_status_id_str
p1073
NsVplace
p1074
Nsa(dp1075
Vcontributors
p1076
NsVtruncated
p1077
I00
sVtext
p1078
V@tabe2314 \u6599\u91d1\u4f53\u7cfb\u304c\u308f\u304b\u308a\u3065\u3089\u3044\u3067\u3059\u3002&gt;&lt;
p1079
sVin_reply_to_status_id
p1080
L448135418060365824L
sVid
p1081
L448137751309737984L
sVfavorite_count
p1082
I0
sVsource
p1083
Vweb
p1084
sVretweeted
p1085
I00
sVcoordinates
p1086
NsVentities
p1087
(dp1088
Vsymbols
p1089
(lp1090
sVuser_mentions
p1091
(lp1092
(dp1093
Vid
p1094
I178717818
sVindices
p1095
(lp1096
I0
aI9
asVid_str
p1097
V178717818
p1098
sVscreen_name
p1099
Vtabe2314
p1100
sVname
p1101
VTakashi Abe
p1102
sasVhashtags
p1103
(lp1104
sVurls
p1105
(lp1106
ssVin_reply_to_screen_name
p1107
Vtabe2314
p1108
sVid_str
p1109
V448137751309737984
p1110
sVretweet_count
p1111
I0
sVin_reply_to_user_id
p1112
I178717818
sVfavorited
p1113
I00
sVuser
p1114
(dp1115
Vfollow_request_sent
p1116
I00
sVprofile_use_background_image
p1117
I01
sVdefault_profile_image
p1118
I00
sVid
p1119
I87714006
sVprofile_background_image_url_https
p1120
Vhttps://abs.twimg.com/images/themes/theme1/bg.png
p1121
sVverified
p1122
I00
sVprofile_text_color
p1123
V333333
p1124
sVprofile_image_url_https
p1125
Vhttps://pbs.twimg.com/profile_images/378800000223203243/a38b3dda1ad958d9d2fe708acfe64969_normal.png
p1126
sVprofile_sidebar_fill_color
p1127
VDDEEF6
p1128
sVentities
p1129
(dp1130
Vdescription
p1131
(dp1132
Vurls
p1133
(lp1134
sssVfollowers_count
p1135
I118
sVprofile_sidebar_border_color
p1136
VC0DEED
p1137
sVid_str
p1138
V87714006
p1139
sVprofile_background_color
p1140
VC0DEED
p1141
sVlisted_count
p1142
I1
sVis_translation_enabled
p1143
I00
sVutc_offset
p1144
I-36000
sVstatuses_count
p1145
I1679
sVdescription
p1146
V\u307e\u3053\u3068\u306b\u3082\u3046\u3057\u308f\u3051\u3042\u308a\u307e\u305b\u3093\u304c\u3001\u3042\u306a\u305f\u306e\u305f\u3081\u306b\u306a\u308b\u3058\u3087\u3046\u307b\u3046\u306f\u3053\u308c\u3063\u307d\u3063\u3061\u3082\u3064\u3076\u3084\u304d\u307e\u305b\u3093\u3002('A`)
p1147
sVfriends_count
p1148
I354
sVlocation
p1149
V\u725b\u305f\u3093\u770c
p1150
sVprofile_link_color
p1151
V0084B4
p1152
sVprofile_image_url
p1153
Vhttp://pbs.twimg.com/profile_images/378800000223203243/a38b3dda1ad958d9d2fe708acfe64969_normal.png
p1154
sVfollowing
p1155
I01
sVgeo_enabled
p1156
I00
sVprofile_background_image_url
p1157
Vhttp://abs.twimg.com/images/themes/theme1/bg.png
p1158
sVscreen_name
p1159
Vkawa1125tp
p1160
sVlang
p1161
Ven-gb
p1162
sVprofile_background_tile
p1163
I00
sVfavourites_count
p1164
I587
sVname
p1165
VShir
p1166
sVnotifications
p1167
I00
sVurl
p1168
NsVcreated_at
p1169
VThu Nov 05 15:38:26 +0000 2009
p1170
sVcontributors_enabled
p1171
I00
sVtime_zone
p1172
VHawaii
p1173
sVprotected
p1174
I00
sVdefault_profile
p1175
I01
sVis_translator
p1176
I00
ssVgeo
p1177
NsVin_reply_to_user_id_str
p1178
V178717818
p1179
sVlang
p1180
Vja
p1181
sVcreated_at
p1182
VMon Mar 24 16:42:20 +0000 2014
p1183
sVin_reply_to_status_id_str
p1184
V448135418060365824
p1185
sVplace
p1186
Nsa(dp1187
Vcontributors
p1188
NsVtruncated
p1189
I00
sVtext
p1190
VEC2\u306e\u7121\u6599\u67a0\u3067\u30b5\u30fc\u30d0\u5efa\u3066\u308b\u3002\u672a\u6765\u3092\u611f\u3058\u308b\u3002
p1191
sVin_reply_to_status_id
p1192
NsVid
p1193
L448121301454954496L
sVfavorite_count
p1194
I0
sVsource
p1195
Vweb
p1196
sVretweeted
p1197
I00
sVcoordinates
p1198
NsVentities
p1199
(dp1200
Vsymbols
p1201
(lp1202
sVuser_mentions
p1203
(lp1204
sVhashtags
p1205
(lp1206
sVurls
p1207
(lp1208
ssVin_reply_to_screen_name
p1209
NsVid_str
p1210
V448121301454954496
p1211
sVretweet_count
p1212
I0
sVin_reply_to_user_id
p1213
NsVfavorited
p1214
I00
sVuser
p1215
(dp1216
Vfollow_request_sent
p1217
I00
sVprofile_use_background_image
p1218
I01
sVdefault_profile_image
p1219
I00
sVid
p1220
I87714006
sVprofile_background_image_url_https
p1221
Vhttps://abs.twimg.com/images/themes/theme1/bg.png
p1222
sVverified
p1223
I00
sVprofile_text_color
p1224
V333333
p1225
sVprofile_image_url_https
p1226
Vhttps://pbs.twimg.com/profile_images/378800000223203243/a38b3dda1ad958d9d2fe708acfe64969_normal.png
p1227
sVprofile_sidebar_fill_color
p1228
VDDEEF6
p1229
sVentities
p1230
(dp1231
Vdescription
p1232
(dp1233
Vurls
p1234
(lp1235
sssVfollowers_count
p1236
I118
sVprofile_sidebar_border_color
p1237
VC0DEED
p1238
sVid_str
p1239
V87714006
p1240
sVprofile_background_color
p1241
VC0DEED
p1242
sVlisted_count
p1243
I1
sVis_translation_enabled
p1244
I00
sVutc_offset
p1245
I-36000
sVstatuses_count
p1246
I1679
sVdescription
p1247
V\u307e\u3053\u3068\u306b\u3082\u3046\u3057\u308f\u3051\u3042\u308a\u307e\u305b\u3093\u304c\u3001\u3042\u306a\u305f\u306e\u305f\u3081\u306b\u306a\u308b\u3058\u3087\u3046\u307b\u3046\u306f\u3053\u308c\u3063\u307d\u3063\u3061\u3082\u3064\u3076\u3084\u304d\u307e\u305b\u3093\u3002('A`)
p1248
sVfriends_count
p1249
I354
sVlocation
p1250
V\u725b\u305f\u3093\u770c
p1251
sVprofile_link_color
p1252
V0084B4
p1253
sVprofile_image_url
p1254
Vhttp://pbs.twimg.com/profile_images/378800000223203243/a38b3dda1ad958d9d2fe708acfe64969_normal.png
p1255
sVfollowing
p1256
I01
sVgeo_enabled
p1257
I00
sVprofile_background_image_url
p1258
Vhttp://abs.twimg.com/images/themes/theme1/bg.png
p1259
sVscreen_name
p1260
Vkawa1125tp
p1261
sVlang
p1262
Ven-gb
p1263
sVprofile_background_tile
p1264
I00
sVfavourites_count
p1265
I587
sVname
p1266
VShir
p1267
sVnotifications
p1268
I00
sVurl
p1269
NsVcreated_at
p1270
VThu Nov 05 15:38:26 +0000 2009
p1271
sVcontributors_enabled
p1272
I00
sVtime_zone
p1273
VHawaii
p1274
sVprotected
p1275
I00
sVdefault_profile
p1276
I01
sVis_translator
p1277
I00
ssVgeo
p1278
NsVin_reply_to_user_id_str
p1279
NsVlang
p1280
Vja
p1281
sVcreated_at
p1282
VMon Mar 24 15:36:58 +0000 2014
p1283
sVin_reply_to_status_id_str
p1284
NsVplace
p1285
Nsa(dp1286
Vcontributors
p1287
NsVtruncated
p1288
I00
sVtext
p1289
V@maashon \u30ce\u30fc\u30e0\u304c\u4e16\u754c\u65c5\u884c\u3057\u305f\u308a\u3001\u8107\u306e\u30b9\u30c8\u30fc\u30ea\u30fc\u3082\u3061\u3083\u3093\u3068\u3057\u3066\u3066\u3044\u3044\u3088\u306d\u3002
p1290
sVin_reply_to_status_id
p1291
L447748487568818177L
sVid
p1292
L447750197485903873L
sVfavorite_count
p1293
I0
sVsource
p1294
Vweb
p1295
sVretweeted
p1296
I00
sVcoordinates
p1297
NsVentities
p1298
(dp1299
Vsymbols
p1300
(lp1301
sVuser_mentions
p1302
(lp1303
(dp1304
Vid
p1305
I130424343
sVindices
p1306
(lp1307
I0
aI8
asVid_str
p1308
V130424343
p1309
sVscreen_name
p1310
Vmaashon
p1311
sVname
p1312
V\u307e\u304a
p1313
sasVhashtags
p1314
(lp1315
sVurls
p1316
(lp1317
ssVin_reply_to_screen_name
p1318
Vmaashon
p1319
sVid_str
p1320
V447750197485903873
p1321
sVretweet_count
p1322
I0
sVin_reply_to_user_id
p1323
I130424343
sVfavorited
p1324
I00
sVuser
p1325
(dp1326
Vfollow_request_sent
p1327
I00
sVprofile_use_background_image
p1328
I01
sVdefault_profile_image
p1329
I00
sVid
p1330
I87714006
sVprofile_background_image_url_https
p1331
Vhttps://abs.twimg.com/images/themes/theme1/bg.png
p1332
sVverified
p1333
I00
sVprofile_text_color
p1334
V333333
p1335
sVprofile_image_url_https
p1336
Vhttps://pbs.twimg.com/profile_images/378800000223203243/a38b3dda1ad958d9d2fe708acfe64969_normal.png
p1337
sVprofile_sidebar_fill_color
p1338
VDDEEF6
p1339
sVentities
p1340
(dp1341
Vdescription
p1342
(dp1343
Vurls
p1344
(lp1345
sssVfollowers_count
p1346
I118
sVprofile_sidebar_border_color
p1347
VC0DEED
p1348
sVid_str
p1349
V87714006
p1350
sVprofile_background_color
p1351
VC0DEED
p1352
sVlisted_count
p1353
I1
sVis_translation_enabled
p1354
I00
sVutc_offset
p1355
I-36000
sVstatuses_count
p1356
I1679
sVdescription
p1357
V\u307e\u3053\u3068\u306b\u3082\u3046\u3057\u308f\u3051\u3042\u308a\u307e\u305b\u3093\u304c\u3001\u3042\u306a\u305f\u306e\u305f\u3081\u306b\u306a\u308b\u3058\u3087\u3046\u307b\u3046\u306f\u3053\u308c\u3063\u307d\u3063\u3061\u3082\u3064\u3076\u3084\u304d\u307e\u305b\u3093\u3002('A`)
p1358
sVfriends_count
p1359
I354
sVlocation
p1360
V\u725b\u305f\u3093\u770c
p1361
sVprofile_link_color
p1362
V0084B4
p1363
sVprofile_image_url
p1364
Vhttp://pbs.twimg.com/profile_images/378800000223203243/a38b3dda1ad958d9d2fe708acfe64969_normal.png
p1365
sVfollowing
p1366
I01
sVgeo_enabled
p1367
I00
sVprofile_background_image_url
p1368
Vhttp://abs.twimg.com/images/themes/theme1/bg.png
p1369
sVscreen_name
p1370
Vkawa1125tp
p1371
sVlang
p1372
Ven-gb
p1373
sVprofile_background_tile
p1374
I00
sVfavourites_count
p1375
I587
sVname
p1376
VShir
p1377
sVnotifications
p1378
I00
sVurl
p1379
NsVcreated_at
p1380
VThu Nov 05 15:38:26 +0000 2009
p1381
sVcontributors_enabled
p1382
I00
sVtime_zone
p1383
VHawaii
p1384
sVprotected
p1385
I00
sVdefault_profile
p1386
I01
sVis_translator
p1387
I00
ssVgeo
p1388
NsVin_reply_to_user_id_str
p1389
V130424343
p1390
sVlang
p1391
Vja
p1392
sVcreated_at
p1393
VSun Mar 23 15:02:20 +0000 2014
p1394
sVin_reply_to_status_id_str
p1395
V447748487568818177
p1396
sVplace
p1397
Nsa(dp1398
Vcontributors
p1399
NsVtruncated
p1400
I00
sVtext
p1401
V\u8ab0\u304b\u306e\u5e8a\u6f14\u6280\u3067\u6d41\u308c\u3066\u3044\u305f\u6c17\u304c\u3059\u308b\u3051\u3069\u3001\u30a2\u30e1\u30ea\u306e\u66f2\u3060\u3063\u305f\u3093\u3060\u306d\u3002 Amelie - J'y Suis Jamais Alle.: http://t.co/xFeYuGw4CR via @YouTube
p1402
sVin_reply_to_status_id
p1403
NsVid
p1404
L447742178660339712L
sVfavorite_count
p1405
I1
sVsource
p1406
V<a href="http://twitter.com/tweetbutton" rel="nofollow">Tweet Button</a>
p1407
sVretweeted
p1408
I00
sVcoordinates
p1409
NsVentities
p1410
(dp1411
Vsymbols
p1412
(lp1413
sVuser_mentions
p1414
(lp1415
(dp1416
Vid
p1417
I10228272
sVindices
p1418
(lp1419
I91
aI99
asVid_str
p1420
V10228272
p1421
sVscreen_name
p1422
VYouTube
p1423
sVname
p1424
VYouTube
p1425
sasVhashtags
p1426
(lp1427
sVurls
p1428
(lp1429
(dp1430
Vurl
p1431
Vhttp://t.co/xFeYuGw4CR
p1432
sVindices
p1433
(lp1434
I64
aI86
asVexpanded_url
p1435
Vhttp://youtu.be/okJpAybjpQs
p1436
sVdisplay_url
p1437
Vyoutu.be/okJpAybjpQs
p1438
sassVin_reply_to_screen_name
p1439
NsVid_str
p1440
V447742178660339712
p1441
sVretweet_count
p1442
I0
sVin_reply_to_user_id
p1443
NsVfavorited
p1444
I00
sVuser
p1445
(dp1446
Vfollow_request_sent
p1447
I00
sVprofile_use_background_image
p1448
I01
sVdefault_profile_image
p1449
I00
sVid
p1450
I87714006
sVprofile_background_image_url_https
p1451
Vhttps://abs.twimg.com/images/themes/theme1/bg.png
p1452
sVverified
p1453
I00
sVprofile_text_color
p1454
V333333
p1455
sVprofile_image_url_https
p1456
Vhttps://pbs.twimg.com/profile_images/378800000223203243/a38b3dda1ad958d9d2fe708acfe64969_normal.png
p1457
sVprofile_sidebar_fill_color
p1458
VDDEEF6
p1459
sVentities
p1460
(dp1461
Vdescription
p1462
(dp1463
Vurls
p1464
(lp1465
sssVfollowers_count
p1466
I118
sVprofile_sidebar_border_color
p1467
VC0DEED
p1468
sVid_str
p1469
V87714006
p1470
sVprofile_background_color
p1471
VC0DEED
p1472
sVlisted_count
p1473
I1
sVis_translation_enabled
p1474
I00
sVutc_offset
p1475
I-36000
sVstatuses_count
p1476
I1679
sVdescription
p1477
V\u307e\u3053\u3068\u306b\u3082\u3046\u3057\u308f\u3051\u3042\u308a\u307e\u305b\u3093\u304c\u3001\u3042\u306a\u305f\u306e\u305f\u3081\u306b\u306a\u308b\u3058\u3087\u3046\u307b\u3046\u306f\u3053\u308c\u3063\u307d\u3063\u3061\u3082\u3064\u3076\u3084\u304d\u307e\u305b\u3093\u3002('A`)
p1478
sVfriends_count
p1479
I354
sVlocation
p1480
V\u725b\u305f\u3093\u770c
p1481
sVprofile_link_color
p1482
V0084B4
p1483
sVprofile_image_url
p1484
Vhttp://pbs.twimg.com/profile_images/378800000223203243/a38b3dda1ad958d9d2fe708acfe64969_normal.png
p1485
sVfollowing
p1486
I01
sVgeo_enabled
p1487
I00
sVprofile_background_image_url
p1488
Vhttp://abs.twimg.com/images/themes/theme1/bg.png
p1489
sVscreen_name
p1490
Vkawa1125tp
p1491
sVlang
p1492
Ven-gb
p1493
sVprofile_background_tile
p1494
I00
sVfavourites_count
p1495
I587
sVname
p1496
VShir
p1497
sVnotifications
p1498
I00
sVurl
p1499
NsVcreated_at
p1500
VThu Nov 05 15:38:26 +0000 2009
p1501
sVcontributors_enabled
p1502
I00
sVtime_zone
p1503
VHawaii
p1504
sVprotected
p1505
I00
sVdefault_profile
p1506
I01
sVis_translator
p1507
I00
ssVgeo
p1508
NsVin_reply_to_user_id_str
p1509
NsVpossibly_sensitive
p1510
I00
sVlang
p1511
Vja
p1512
sVcreated_at
p1513
VSun Mar 23 14:30:28 +0000 2014
p1514
sVin_reply_to_status_id_str
p1515
NsVplace
p1516
Nsa(dp1517
Vcontributors
p1518
NsVtruncated
p1519
I00
sVtext
p1520
V\u97f3\u697d\u3068\u753a\u4e26\u307f\u3068\u30a2\u30e1\u30ea\u306e\u5c65\u3044\u3066\u305f\u9774\u304c\u3088\u304b\u3063\u305f\u3002
p1521
sVin_reply_to_status_id
p1522
NsVid
p1523
L447740035165474816L
sVfavorite_count
p1524
I0
sVsource
p1525
Vweb
p1526
sVretweeted
p1527
I00
sVcoordinates
p1528
NsVentities
p1529
(dp1530
Vsymbols
p1531
(lp1532
sVuser_mentions
p1533
(lp1534
sVhashtags
p1535
(lp1536
sVurls
p1537
(lp1538
ssVin_reply_to_screen_name
p1539
NsVid_str
p1540
V447740035165474816
p1541
sVretweet_count
p1542
I0
sVin_reply_to_user_id
p1543
NsVfavorited
p1544
I00
sVuser
p1545
(dp1546
Vfollow_request_sent
p1547
I00
sVprofile_use_background_image
p1548
I01
sVdefault_profile_image
p1549
I00
sVid
p1550
I87714006
sVprofile_background_image_url_https
p1551
Vhttps://abs.twimg.com/images/themes/theme1/bg.png
p1552
sVverified
p1553
I00
sVprofile_text_color
p1554
V333333
p1555
sVprofile_image_url_https
p1556
Vhttps://pbs.twimg.com/profile_images/378800000223203243/a38b3dda1ad958d9d2fe708acfe64969_normal.png
p1557
sVprofile_sidebar_fill_color
p1558
VDDEEF6
p1559
sVentities
p1560
(dp1561
Vdescription
p1562
(dp1563
Vurls
p1564
(lp1565
sssVfollowers_count
p1566
I118
sVprofile_sidebar_border_color
p1567
VC0DEED
p1568
sVid_str
p1569
V87714006
p1570
sVprofile_background_color
p1571
VC0DEED
p1572
sVlisted_count
p1573
I1
sVis_translation_enabled
p1574
I00
sVutc_offset
p1575
I-36000
sVstatuses_count
p1576
I1679
sVdescription
p1577
V\u307e\u3053\u3068\u306b\u3082\u3046\u3057\u308f\u3051\u3042\u308a\u307e\u305b\u3093\u304c\u3001\u3042\u306a\u305f\u306e\u305f\u3081\u306b\u306a\u308b\u3058\u3087\u3046\u307b\u3046\u306f\u3053\u308c\u3063\u307d\u3063\u3061\u3082\u3064\u3076\u3084\u304d\u307e\u305b\u3093\u3002('A`)
p1578
sVfriends_count
p1579
I354
sVlocation
p1580
V\u725b\u305f\u3093\u770c
p1581
sVprofile_link_color
p1582
V0084B4
p1583
sVprofile_image_url
p1584
Vhttp://pbs.twimg.com/profile_images/378800000223203243/a38b3dda1ad958d9d2fe708acfe64969_normal.png
p1585
sVfollowing
p1586
I01
sVgeo_enabled
p1587
I00
sVprofile_background_image_url
p1588
Vhttp://abs.twimg.com/images/themes/theme1/bg.png
p1589
sVscreen_name
p1590
Vkawa1125tp
p1591
sVlang
p1592
Ven-gb
p1593
sVprofile_background_tile
p1594
I00
sVfavourites_count
p1595
I587
sVname
p1596
VShir
p1597
sVnotifications
p1598
I00
sVurl
p1599
NsVcreated_at
p1600
VThu Nov 05 15:38:26 +0000 2009
p1601
sVcontributors_enabled
p1602
I00
sVtime_zone
p1603
VHawaii
p1604
sVprotected
p1605
I00
sVdefault_profile
p1606
I01
sVis_translator
p1607
I00
ssVgeo
p1608
NsVin_reply_to_user_id_str
p1609
NsVlang
p1610
Vja
p1611
sVcreated_at
p1612
VSun Mar 23 14:21:57 +0000 2014
p1613
sVin_reply_to_status_id_str
p1614
NsVplace
p1615
Nsa(dp1616
Vcontributors
p1617
NsVtruncated
p1618
I00
sVtext
p1619
V\u30a2\u30e1\u30ea\u307f\u305f\u3002\u304e\u3053\u3061\u306a\u3044\u611f\u3058\u304c\u3044\u3044\u3002
p1620
sVin_reply_to_status_id
p1621
NsVid
p1622
L447739290345160704L
sVfavorite_count
p1623
I0
sVsource
p1624
Vweb
p1625
sVretweeted
p1626
I00
sVcoordinates
p1627
NsVentities
p1628
(dp1629
Vsymbols
p1630
(lp1631
sVuser_mentions
p1632
(lp1633
sVhashtags
p1634
(lp1635
sVurls
p1636
(lp1637
ssVin_reply_to_screen_name
p1638
NsVid_str
p1639
V447739290345160704
p1640
sVretweet_count
p1641
I0
sVin_reply_to_user_id
p1642
NsVfavorited
p1643
I00
sVuser
p1644
(dp1645
Vfollow_request_sent
p1646
I00
sVprofile_use_background_image
p1647
I01
sVdefault_profile_image
p1648
I00
sVid
p1649
I87714006
sVprofile_background_image_url_https
p1650
Vhttps://abs.twimg.com/images/themes/theme1/bg.png
p1651
sVverified
p1652
I00
sVprofile_text_color
p1653
V333333
p1654
sVprofile_image_url_https
p1655
Vhttps://pbs.twimg.com/profile_images/378800000223203243/a38b3dda1ad958d9d2fe708acfe64969_normal.png
p1656
sVprofile_sidebar_fill_color
p1657
VDDEEF6
p1658
sVentities
p1659
(dp1660
Vdescription
p1661
(dp1662
Vurls
p1663
(lp1664
sssVfollowers_count
p1665
I118
sVprofile_sidebar_border_color
p1666
VC0DEED
p1667
sVid_str
p1668
V87714006
p1669
sVprofile_background_color
p1670
VC0DEED
p1671
sVlisted_count
p1672
I1
sVis_translation_enabled
p1673
I00
sVutc_offset
p1674
I-36000
sVstatuses_count
p1675
I1679
sVdescription
p1676
V\u307e\u3053\u3068\u306b\u3082\u3046\u3057\u308f\u3051\u3042\u308a\u307e\u305b\u3093\u304c\u3001\u3042\u306a\u305f\u306e\u305f\u3081\u306b\u306a\u308b\u3058\u3087\u3046\u307b\u3046\u306f\u3053\u308c\u3063\u307d\u3063\u3061\u3082\u3064\u3076\u3084\u304d\u307e\u305b\u3093\u3002('A`)
p1677
sVfriends_count
p1678
I354
sVlocation
p1679
V\u725b\u305f\u3093\u770c
p1680
sVprofile_link_color
p1681
V0084B4
p1682
sVprofile_image_url
p1683
Vhttp://pbs.twimg.com/profile_images/378800000223203243/a38b3dda1ad958d9d2fe708acfe64969_normal.png
p1684
sVfollowing
p1685
I01
sVgeo_enabled
p1686
I00
sVprofile_background_image_url
p1687
Vhttp://abs.twimg.com/images/themes/theme1/bg.png
p1688
sVscreen_name
p1689
Vkawa1125tp
p1690
sVlang
p1691
Ven-gb
p1692
sVprofile_background_tile
p1693
I00
sVfavourites_count
p1694
I587
sVname
p1695
VShir
p1696
sVnotifications
p1697
I00
sVurl
p1698
NsVcreated_at
p1699
VThu Nov 05 15:38:26 +0000 2009
p1700
sVcontributors_enabled
p1701
I00
sVtime_zone
p1702
VHawaii
p1703
sVprotected
p1704
I00
sVdefault_profile
p1705
I01
sVis_translator
p1706
I00
ssVgeo
p1707
NsVin_reply_to_user_id_str
p1708
NsVlang
p1709
Vja
p1710
sVcreated_at
p1711
VSun Mar 23 14:19:00 +0000 2014
p1712
sVin_reply_to_status_id_str
p1713
NsVplace
p1714
Nsa(dp1715
Vcontributors
p1716
NsVtruncated
p1717
I00
sVtext
p1718
V@tq9m \u95a2\u6771\u306f\u9060\u3044\u306a\u30fc\u3002\u3067\u3082\u30ab\u30e9\u30aa\u30b1\u4e91\u3005\u3067\u306a\u304f\u3066\u3082\u3001\u307e\u305f\u4e2d\u5b66\u3050\u3089\u3044\u306e\u30e1\u30f3\u30c4\u3067\u96c6\u307e\u308a\u305f\u3044\u306d\u3002
p1719
sVin_reply_to_status_id
p1720
L446455549744652288L
sVid
p1721
L446639883084251136L
sVfavorite_count
p1722
I0
sVsource
p1723
V<a href="http://twitter.com/download/android" rel="nofollow">Twitter for Android</a>
p1724
sVretweeted
p1725
I00
sVcoordinates
p1726
NsVentities
p1727
(dp1728
Vsymbols
p1729
(lp1730
sVuser_mentions
p1731
(lp1732
(dp1733
Vid
p1734
I572707140
sVindices
p1735
(lp1736
I0
aI5
asVid_str
p1737
V572707140
p1738
sVscreen_name
p1739
Vtq9m
p1740
sVname
p1741
V\u6749\u5c71 \u62d3\u7f8e
p1742
sasVhashtags
p1743
(lp1744
sVurls
p1745
(lp1746
ssVin_reply_to_screen_name
p1747
Vtq9m
p1748
sVid_str
p1749
V446639883084251136
p1750
sVretweet_count
p1751
I0
sVin_reply_to_user_id
p1752
I572707140
sVfavorited
p1753
I00
sVuser
p1754
(dp1755
Vfollow_request_sent
p1756
I00
sVprofile_use_background_image
p1757
I01
sVdefault_profile_image
p1758
I00
sVid
p1759
I87714006
sVprofile_background_image_url_https
p1760
Vhttps://abs.twimg.com/images/themes/theme1/bg.png
p1761
sVverified
p1762
I00
sVprofile_text_color
p1763
V333333
p1764
sVprofile_image_url_https
p1765
Vhttps://pbs.twimg.com/profile_images/378800000223203243/a38b3dda1ad958d9d2fe708acfe64969_normal.png
p1766
sVprofile_sidebar_fill_color
p1767
VDDEEF6
p1768
sVentities
p1769
(dp1770
Vdescription
p1771
(dp1772
Vurls
p1773
(lp1774
sssVfollowers_count
p1775
I118
sVprofile_sidebar_border_color
p1776
VC0DEED
p1777
sVid_str
p1778
V87714006
p1779
sVprofile_background_color
p1780
VC0DEED
p1781
sVlisted_count
p1782
I1
sVis_translation_enabled
p1783
I00
sVutc_offset
p1784
I-36000
sVstatuses_count
p1785
I1679
sVdescription
p1786
V\u307e\u3053\u3068\u306b\u3082\u3046\u3057\u308f\u3051\u3042\u308a\u307e\u305b\u3093\u304c\u3001\u3042\u306a\u305f\u306e\u305f\u3081\u306b\u306a\u308b\u3058\u3087\u3046\u307b\u3046\u306f\u3053\u308c\u3063\u307d\u3063\u3061\u3082\u3064\u3076\u3084\u304d\u307e\u305b\u3093\u3002('A`)
p1787
sVfriends_count
p1788
I354
sVlocation
p1789
V\u725b\u305f\u3093\u770c
p1790
sVprofile_link_color
p1791
V0084B4
p1792
sVprofile_image_url
p1793
Vhttp://pbs.twimg.com/profile_images/378800000223203243/a38b3dda1ad958d9d2fe708acfe64969_normal.png
p1794
sVfollowing
p1795
I01
sVgeo_enabled
p1796
I00
sVprofile_background_image_url
p1797
Vhttp://abs.twimg.com/images/themes/theme1/bg.png
p1798
sVscreen_name
p1799
Vkawa1125tp
p1800
sVlang
p1801
Ven-gb
p1802
sVprofile_background_tile
p1803
I00
sVfavourites_count
p1804
I587
sVname
p1805
VShir
p1806
sVnotifications
p1807
I00
sVurl
p1808
NsVcreated_at
p1809
VThu Nov 05 15:38:26 +0000 2009
p1810
sVcontributors_enabled
p1811
I00
sVtime_zone
p1812
VHawaii
p1813
sVprotected
p1814
I00
sVdefault_profile
p1815
I01
sVis_translator
p1816
I00
ssVgeo
p1817
NsVin_reply_to_user_id_str
p1818
V572707140
p1819
sVlang
p1820
Vja
p1821
sVcreated_at
p1822
VThu Mar 20 13:30:20 +0000 2014
p1823
sVin_reply_to_status_id_str
p1824
V446455549744652288
p1825
sVplace
p1826
Nsa(dp1827
Vcontributors
p1828
NsVtruncated
p1829
I00
sVtext
p1830
V@ypand \u5c31\u6d3b\u4e00\u6bb5\u843d\u3057\u305f\u3089\u305c\u3072\u884c\u304d\u307e\u3057\u3087\u3046\u3002\u30d7\u30e9\u30b9\u3057\u3066\u98f2\u307f\u307e\u3057\u3087\u3046\uff01
p1831
sVin_reply_to_status_id
p1832
L446290625441185792L
sVid
p1833
L446639534810206209L
sVfavorite_count
p1834
I0
sVsource
p1835
V<a href="http://twitter.com/download/android" rel="nofollow">Twitter for Android</a>
p1836
sVretweeted
p1837
I00
sVcoordinates
p1838
NsVentities
p1839
(dp1840
Vsymbols
p1841
(lp1842
sVuser_mentions
p1843
(lp1844
(dp1845
Vid
p1846
I231704788
sVindices
p1847
(lp1848
I0
aI6
asVid_str
p1849
V231704788
p1850
sVscreen_name
p1851
Vypand
p1852
sVname
p1853
Vypand
p1854
sasVhashtags
p1855
(lp1856
sVurls
p1857
(lp1858
ssVin_reply_to_screen_name
p1859
Vypand
p1860
sVid_str
p1861
V446639534810206209
p1862
sVretweet_count
p1863
I0
sVin_reply_to_user_id
p1864
I231704788
sVfavorited
p1865
I00
sVuser
p1866
(dp1867
Vfollow_request_sent
p1868
I00
sVprofile_use_background_image
p1869
I01
sVdefault_profile_image
p1870
I00
sVid
p1871
I87714006
sVprofile_background_image_url_https
p1872
Vhttps://abs.twimg.com/images/themes/theme1/bg.png
p1873
sVverified
p1874
I00
sVprofile_text_color
p1875
V333333
p1876
sVprofile_image_url_https
p1877
Vhttps://pbs.twimg.com/profile_images/378800000223203243/a38b3dda1ad958d9d2fe708acfe64969_normal.png
p1878
sVprofile_sidebar_fill_color
p1879
VDDEEF6
p1880
sVentities
p1881
(dp1882
Vdescription
p1883
(dp1884
Vurls
p1885
(lp1886
sssVfollowers_count
p1887
I118
sVprofile_sidebar_border_color
p1888
VC0DEED
p1889
sVid_str
p1890
V87714006
p1891
sVprofile_background_color
p1892
VC0DEED
p1893
sVlisted_count
p1894
I1
sVis_translation_enabled
p1895
I00
sVutc_offset
p1896
I-36000
sVstatuses_count
p1897
I1679
sVdescription
p1898
V\u307e\u3053\u3068\u306b\u3082\u3046\u3057\u308f\u3051\u3042\u308a\u307e\u305b\u3093\u304c\u3001\u3042\u306a\u305f\u306e\u305f\u3081\u306b\u306a\u308b\u3058\u3087\u3046\u307b\u3046\u306f\u3053\u308c\u3063\u307d\u3063\u3061\u3082\u3064\u3076\u3084\u304d\u307e\u305b\u3093\u3002('A`)
p1899
sVfriends_count
p1900
I354
sVlocation
p1901
V\u725b\u305f\u3093\u770c
p1902
sVprofile_link_color
p1903
V0084B4
p1904
sVprofile_image_url
p1905
Vhttp://pbs.twimg.com/profile_images/378800000223203243/a38b3dda1ad958d9d2fe708acfe64969_normal.png
p1906
sVfollowing
p1907
I01
sVgeo_enabled
p1908
I00
sVprofile_background_image_url
p1909
Vhttp://abs.twimg.com/images/themes/theme1/bg.png
p1910
sVscreen_name
p1911
Vkawa1125tp
p1912
sVlang
p1913
Ven-gb
p1914
sVprofile_background_tile
p1915
I00
sVfavourites_count
p1916
I587
sVname
p1917
VShir
p1918
sVnotifications
p1919
I00
sVurl
p1920
NsVcreated_at
p1921
VThu Nov 05 15:38:26 +0000 2009
p1922
sVcontributors_enabled
p1923
I00
sVtime_zone
p1924
VHawaii
p1925
sVprotected
p1926
I00
sVdefault_profile
p1927
I01
sVis_translator
p1928
I00
ssVgeo
p1929
NsVin_reply_to_user_id_str
p1930
V231704788
p1931
sVlang
p1932
Vja
p1933
sVcreated_at
p1934
VThu Mar 20 13:28:57 +0000 2014
p1935
sVin_reply_to_status_id_str
p1936
V446290625441185792
p1937
sVplace
p1938
Nsa(dp1939
Vcontributors
p1940
NsVtruncated
p1941
I00
sVtext
p1942
V\u30c7\u30a3\u30fc\u30d7\u30d5\u30a7\u30a4\u30b9\u3050\u306c\u306c\u3002
p1943
sVin_reply_to_status_id
p1944
NsVid
p1945
L446471859282792448L
sVfavorite_count
p1946
I0
sVsource
p1947
Vweb
p1948
sVretweeted
p1949
I00
sVcoordinates
p1950
NsVentities
p1951
(dp1952
Vsymbols
p1953
(lp1954
sVuser_mentions
p1955
(lp1956
sVhashtags
p1957
(lp1958
sVurls
p1959
(lp1960
ssVin_reply_to_screen_name
p1961
NsVid_str
p1962
V446471859282792448
p1963
sVretweet_count
p1964
I0
sVin_reply_to_user_id
p1965
NsVfavorited
p1966
I00
sVuser
p1967
(dp1968
Vfollow_request_sent
p1969
I00
sVprofile_use_background_image
p1970
I01
sVdefault_profile_image
p1971
I00
sVid
p1972
I87714006
sVprofile_background_image_url_https
p1973
Vhttps://abs.twimg.com/images/themes/theme1/bg.png
p1974
sVverified
p1975
I00
sVprofile_text_color
p1976
V333333
p1977
sVprofile_image_url_https
p1978
Vhttps://pbs.twimg.com/profile_images/378800000223203243/a38b3dda1ad958d9d2fe708acfe64969_normal.png
p1979
sVprofile_sidebar_fill_color
p1980
VDDEEF6
p1981
sVentities
p1982
(dp1983
Vdescription
p1984
(dp1985
Vurls
p1986
(lp1987
sssVfollowers_count
p1988
I118
sVprofile_sidebar_border_color
p1989
VC0DEED
p1990
sVid_str
p1991
V87714006
p1992
sVprofile_background_color
p1993
VC0DEED
p1994
sVlisted_count
p1995
I1
sVis_translation_enabled
p1996
I00
sVutc_offset
p1997
I-36000
sVstatuses_count
p1998
I1679
sVdescription
p1999
V\u307e\u3053\u3068\u306b\u3082\u3046\u3057\u308f\u3051\u3042\u308a\u307e\u305b\u3093\u304c\u3001\u3042\u306a\u305f\u306e\u305f\u3081\u306b\u306a\u308b\u3058\u3087\u3046\u307b\u3046\u306f\u3053\u308c\u3063\u307d\u3063\u3061\u3082\u3064\u3076\u3084\u304d\u307e\u305b\u3093\u3002('A`)
p2000
sVfriends_count
p2001
I354
sVlocation
p2002
V\u725b\u305f\u3093\u770c
p2003
sVprofile_link_color
p2004
V0084B4
p2005
sVprofile_image_url
p2006
Vhttp://pbs.twimg.com/profile_images/378800000223203243/a38b3dda1ad958d9d2fe708acfe64969_normal.png
p2007
sVfollowing
p2008
I01
sVgeo_enabled
p2009
I00
sVprofile_background_image_url
p2010
Vhttp://abs.twimg.com/images/themes/theme1/bg.png
p2011
sVscreen_name
p2012
Vkawa1125tp
p2013
sVlang
p2014
Ven-gb
p2015
sVprofile_background_tile
p2016
I00
sVfavourites_count
p2017
I587
sVname
p2018
VShir
p2019
sVnotifications
p2020
I00
sVurl
p2021
NsVcreated_at
p2022
VThu Nov 05 15:38:26 +0000 2009
p2023
sVcontributors_enabled
p2024
I00
sVtime_zone
p2025
VHawaii
p2026
sVprotected
p2027
I00
sVdefault_profile
p2028
I01
sVis_translator
p2029
I00
ssVgeo
p2030
NsVin_reply_to_user_id_str
p2031
NsVlang
p2032
Vja
p2033
sVcreated_at
p2034
VThu Mar 20 02:22:40 +0000 2014
p2035
sVin_reply_to_status_id_str
p2036
NsVplace
p2037
Nsa(dp2038
Vcontributors
p2039
NsVtruncated
p2040
I00
sVtext
p2041
V\u30ab\u30e9\u30aa\u30b1\u884c\u304d\u305f\u3044\u540c\u58eb\u3092\u767a\u898b\u3057\u307e\u3059\u3002 http://t.co/csaiVp8U2z
p2042
sVin_reply_to_status_id
p2043
NsVid
p2044
L446216310628696064L
sVfavorite_count
p2045
I0
sVsource
p2046
V<a href="http://gohantabeyo.com" rel="nofollow">gohantabeyo.com</a>
p2047
sVretweeted
p2048
I00
sVcoordinates
p2049
NsVentities
p2050
(dp2051
Vsymbols
p2052
(lp2053
sVuser_mentions
p2054
(lp2055
sVhashtags
p2056
(lp2057
sVurls
p2058
(lp2059
(dp2060
Vurl
p2061
Vhttp://t.co/csaiVp8U2z
p2062
sVindices
p2063
(lp2064
I18
aI40
asVexpanded_url
p2065
Vhttp://gohantabeyo.com/nani/115?prefill=__kewpie
p2066
sVdisplay_url
p2067
Vgohantabeyo.com/nani/115?prefi\u2026
p2068
sassVin_reply_to_screen_name
p2069
NsVid_str
p2070
V446216310628696064
p2071
sVretweet_count
p2072
I0
sVin_reply_to_user_id
p2073
NsVfavorited
p2074
I00
sVuser
p2075
(dp2076
Vfollow_request_sent
p2077
I00
sVprofile_use_background_image
p2078
I01
sVdefault_profile_image
p2079
I00
sVid
p2080
I87714006
sVprofile_background_image_url_https
p2081
Vhttps://abs.twimg.com/images/themes/theme1/bg.png
p2082
sVverified
p2083
I00
sVprofile_text_color
p2084
V333333
p2085
sVprofile_image_url_https
p2086
Vhttps://pbs.twimg.com/profile_images/378800000223203243/a38b3dda1ad958d9d2fe708acfe64969_normal.png
p2087
sVprofile_sidebar_fill_color
p2088
VDDEEF6
p2089
sVentities
p2090
(dp2091
Vdescription
p2092
(dp2093
Vurls
p2094
(lp2095
sssVfollowers_count
p2096
I118
sVprofile_sidebar_border_color
p2097
VC0DEED
p2098
sVid_str
p2099
V87714006
p2100
sVprofile_background_color
p2101
VC0DEED
p2102
sVlisted_count
p2103
I1
sVis_translation_enabled
p2104
I00
sVutc_offset
p2105
I-36000
sVstatuses_count
p2106
I1679
sVdescription
p2107
V\u307e\u3053\u3068\u306b\u3082\u3046\u3057\u308f\u3051\u3042\u308a\u307e\u305b\u3093\u304c\u3001\u3042\u306a\u305f\u306e\u305f\u3081\u306b\u306a\u308b\u3058\u3087\u3046\u307b\u3046\u306f\u3053\u308c\u3063\u307d\u3063\u3061\u3082\u3064\u3076\u3084\u304d\u307e\u305b\u3093\u3002('A`)
p2108
sVfriends_count
p2109
I354
sVlocation
p2110
V\u725b\u305f\u3093\u770c
p2111
sVprofile_link_color
p2112
V0084B4
p2113
sVprofile_image_url
p2114
Vhttp://pbs.twimg.com/profile_images/378800000223203243/a38b3dda1ad958d9d2fe708acfe64969_normal.png
p2115
sVfollowing
p2116
I01
sVgeo_enabled
p2117
I00
sVprofile_background_image_url
p2118
Vhttp://abs.twimg.com/images/themes/theme1/bg.png
p2119
sVscreen_name
p2120
Vkawa1125tp
p2121
sVlang
p2122
Ven-gb
p2123
sVprofile_background_tile
p2124
I00
sVfavourites_count
p2125
I587
sVname
p2126
VShir
p2127
sVnotifications
p2128
I00
sVurl
p2129
NsVcreated_at
p2130
VThu Nov 05 15:38:26 +0000 2009
p2131
sVcontributors_enabled
p2132
I00
sVtime_zone
p2133
VHawaii
p2134
sVprotected
p2135
I00
sVdefault_profile
p2136
I01
sVis_translator
p2137
I00
ssVgeo
p2138
NsVin_reply_to_user_id_str
p2139
NsVpossibly_sensitive
p2140
I00
sVlang
p2141
Vja
p2142
sVcreated_at
p2143
VWed Mar 19 09:27:13 +0000 2014
p2144
sVin_reply_to_status_id_str
p2145
NsVplace
p2146
Nsa.